C:/Users/Mark/AppData/Local/Temp/zcc000010AC15022.asm:
     1                          MODULE main_c
     2                          LINE 0, "main.c"
main.c:
                                
     1                          ;* * * * *  Small-C/Plus z88dk * * * * *
     2                          ;  Version: 22110-51889e5300-20231220
     3                          ;
     4                          ;	Reconstructed for z80 Module Assembler
     5                          ;
     6                          ;	Module compile time: Mon Mar 24 03:17:06 2025
     7                          
     8                          
     9                          	C_LINE	0,"main.c"
                                
                                	MODULE	main_c
                                
                                
                                	INCLUDE "z80_crt0.hdr"
C:/z88dk/lib/config/../../lib/z80_crt0.hdr:
     1                          ;
     2                          ;	Header file which contains all required variables from the
     3                          ;	startup that need to be exposed to individual C files
     4                          ;
     5                          ;	Stick in this file any routines which are needed or implicitly
     6                          ;	implied by sccz80.
     7                          ;
     8                          ;	This file is included by every module
     9                          ;	To handle multi module programs which use floating point
    10                          ;	routines in different modules, we have got rid of
    11                          ;	the conditional assembly around the float routines
    12                          
    13                          
    14                          	EXTERN	base_graphics	; Address of graphics screen
    15                          
    16                          	EXTERN	_cpfar2near	; Far->near conversion (z88)
    17                          	EXTERN	packintrout	; Process interrupt (z88 apps)
    18                          
    19                          	EXTERN	l_dcal		; jp(hl)
    20                          	EXTERN	cleanup		; cleanup before program exit
    21                          
    22                          	EXTERN	l_jphl		; another jp(hl)
    23                          	EXTERN	l_jpix		; jp(ix)
    24                          	EXTERN	l_jpiy		; jp(iy)
    25                          
    26                          	EXTERN	l_setix		; set non-z80 jp(ix) smc
    27                          	EXTERN	l_setiy		; set non-z80 jp(iy) smc
    28                          
    29                          	EXTERN	l_ldi
    30                          	EXTERN	l_ldi_128
    31                          	EXTERN	l_ldi_256
    32                          
    33                          	EXTERN	l_outi
    34                          	EXTERN	l_outi_128
    35                          	EXTERN	l_outi_256
    36                          
    37                          	EXTERN	l_ini
    38                          	EXTERN	l_ini_128
    39                          	EXTERN	l_ini_256
    40                          	EXTERN	l_ini_512
    41                          
    42                          	; Used for banked calls for __banked for sccz80 + sdcc
    43                          	EXTERN	banked_call
    44                          
    45                          ;------------------------------------
    46                          ; Scopes for integer library routines
    47                          ;------------------------------------
    48                          
    49                          	EXTERN	l_getptr	;Get 3 byte pointer
    50                          	EXTERN	l_putptr	;Put 3 byte pointer
    51                          	EXTERN	l_gchar		;Get signed char
    52                          	EXTERN	l_gchar1
    53                          	EXTERN	l_gchar2
    54                          	EXTERN	l_gchar3
    55                          	EXTERN	l_gchar4
    56                          	EXTERN	l_gchar5
    57                          	EXTERN	l_gchar6
    58                          	EXTERN	l_gchar7
    59                          	EXTERN	l_gchar8
    60                          	EXTERN	l_gcharsp	;Get signed char  (peephole opt)
    61                          	EXTERN	l_gcharspsp	;Get signed char and push  (peephole opt)
    62                          	EXTERN	l_g2charspsp	;Get 2 signed char and push  (peephole opt)
    63                          	EXTERN	l_sxt		;Sign extend char
    64                          	EXTERN	l_gint		;Get int ld hl,(hl)
    65                          	EXTERN	l_gint1sp	;Optimized variants ld hl,x add hl,sp ld hl,(hl)
    66                          	EXTERN	l_gint2sp
    67                          	EXTERN	l_gint3sp
    68                          	EXTERN	l_gint4sp
    69                          	EXTERN	l_gint5sp
    70                          	EXTERN	l_gint6sp
    71                          	EXTERN	l_gint7sp
    72                          	EXTERN	l_gint8sp
    73                          	EXTERN	l_gint1		;Optimized variants inc hl,x ld hl,(hl)
    74                          	EXTERN	l_gint2
    75                          	EXTERN	l_gint3
    76                          	EXTERN	l_gint4
    77                          	EXTERN	l_gint5
    78                          	EXTERN	l_gint6
    79                          	EXTERN	l_gint7
    80                          	EXTERN	l_gint8
    81                          	EXTERN	l_gintsp	;Get int (peephole opt)
    82                          	EXTERN	l_gintspchar	;Get int,char (peephole opt)
    83                          	EXTERN	l_gintspsp	;Get int and push (peephole opt)
    84                          	EXTERN	l_g2intspsp	;Get 2 int and push (peephole opt)
    85                          	EXTERN	l_gintsp2de	;Get int, multiply by 2 and add from SP by de
    86                          	EXTERN	l_gint7de	;Get int, multiply by 7 and add from SP by de
    87                          	EXTERN	l_gint_eq	;Get int and test == 0
    88                          	EXTERN	l_ghtonsint	;Get reverse order int
    89                          	EXTERN	l_pint		;Put int: ld (de),hl
    90                          	EXTERN	l_pint_eq	;Put int and test == 0
    91                          	EXTERN	l_pint_pop	;Put int and pop place address
    92                          	EXTERN	l_or		;Int logical or
    93                          	EXTERN	l_xor		;Int logical xor
    94                          	EXTERN	l_and		;Int logical and
    95                          	EXTERN	l_eq		;Int equality
    96                          	EXTERN	l_ne		;Int inequality
    97                          	EXTERN	l_gt		;Int signed de >  hl
    98                          	EXTERN	l_le		;Int signed de <= hl
    99                          	EXTERN	l_ge		;Int signed de >= hl
   100                          	EXTERN	l_lt		;Int signed de <  hl
   101                          	EXTERN	l_uge		;Int unsigned de >= hl
   102                          	EXTERN	l_ult		;Int unsigned de <  hl
   103                          	EXTERN	l_ugt		;Int unsigned de >  hl
   104                          	EXTERN	l_ule		;Int unsigned de <= hl
   105                          	EXTERN	l_cmp		;Int signed compare
   106                          	EXTERN	l_ucmp		;Int unsigned compare
   107                          	EXTERN	l_asr		;Int signed de >> hl
   108                          	EXTERN	l_asr_hl_by_e	;Int signed hl >> e
   109                          	EXTERN	l_asr_u		;Int unsigned de >> hl
   110                          	EXTERN	l_asr_u_hl_by_e	;Int unsigned hl >> e
   111                          	EXTERN	l_asl		;Int de << hl
   112                          	EXTERN	l_sub		;Int subtract hl = de - hl
   113                          	EXTERN	l_neg		;Int negate
   114                          	EXTERN	l_com		;Int ~
   115                          	EXTERN	l_lneg		;Int logical negate
   116                          	EXTERN	l_bool		;Int boolean test
   117                          	EXTERN	l_cm_de
   118                          	EXTERN	l_cm_bc
   119                          	EXTERN	l_deneg
   120                          	EXTERN	l_bcneg
   121                          	EXTERN	l_case		;Integer case
   122                          	EXTERN	l_mult		;Integer hl = hl * de
   123                          	EXTERN	l_mult_u	;Integer unsigned *
   124                          	EXTERN	l_div		;Integer signed / hl=de/hl, de=de%hl
   125                          	EXTERN	l_div_u		;Integer unsigned /
   126                          	EXTERN	l_mod		;Integer % (for gbz80) hl=de%hl
   127                          	EXTERN	l_mod_u		;Integer unsigned % (for gbz80)
   128                          
   129                          ;------------------
   130                          ;Long functions now
   131                          ;------------------
   132                          
   133                          	EXTERN	lpush2		;Push a long under the stack
   134                          	EXTERN	l_int2long_s	;Int->long signed conversion
   135                          	EXTERN	l_int2long_s_float	;Int->long->float signed conversion (optimizer: use -O3)
   136                          	EXTERN	l_int2long_u_float	;uInt->ulong->float signed conversion
   137                          	EXTERN	l_glong		;Get long
   138                          	EXTERN	l_glongsp	;Get long (peephole opt)
   139                          	EXTERN	l_glonghlp	;Get pointer, then get long
   140                          	EXTERN	l_glong2sp	;Get long and copy on stack (peephole opt)
   141                          	EXTERN	l_glong2sp_hlp
   142                          	EXTERN	l_long_add
   143                          	EXTERN	l_long_and
   144                          	EXTERN	l_long_asl
   145                          	EXTERN	l_long_asr
   146                          	EXTERN	l_long_aslo	;Long << shift in c
   147                          	EXTERN	l_long_asro	;Long >> shift in c (signed)
   148                          	EXTERN	l_long_bool
   149                          	EXTERN	l_long_cmp
   150                          	EXTERN	l_long_com
   151                          	EXTERN	l_long_eq
   152                          	EXTERN	l_long_ge
   153                          	EXTERN	l_long_gt
   154                          	EXTERN	l_long_le
   155                          	EXTERN	l_long_lneg
   156                          	EXTERN	l_long_lt
   157                          	EXTERN	l_long_ne
   158                          	EXTERN	l_long_neg
   159                          	EXTERN	l_long_or
   160                          	EXTERN	l_long_sub
   161                          	EXTERN	l_long_ucmp
   162                          	EXTERN	l_long_uge
   163                          	EXTERN	l_long_ugt
   164                          	EXTERN	l_long_ule
   165                          	EXTERN	l_long_ult
   166                          	EXTERN	l_long_xor
   167                          	EXTERN	l_plong
   168                          	EXTERN	l_inclong	;Increment long
   169                          	EXTERN	l_declong	;Decrement long
   170                          	EXTERN	l_long_div
   171                          	EXTERN	l_long_div_u
   172                          	EXTERN	l_long_mod
   173                          	EXTERN	l_long_mod_u
   174                          	EXTERN	l_long_mult
   175                          	EXTERN	l_long_mult_u
   176                          	EXTERN	l_long_asr_u	;Long unsigned >>
   177                          	EXTERN	l_long_asr_uo	;Long unsigned >> shift in c
   178                          	EXTERN	l_long_case
   179                          
   180                          ;--------------------------------------------------------------
   181                          ; Floating point support routines, mostly in library
   182                          ;--------------------------------------------------------------
   183                          
   184                          	EXTERN	dadd
   185                          	EXTERN	ddiv
   186                          	EXTERN	dsub
   187                          	EXTERN	dmul
   188                          
   189                          	EXTERN	dge
   190                          	EXTERN	dgt
   191                          	EXTERN	dleq
   192                          	EXTERN	dlt
   193                          	EXTERN	deq
   194                          	EXTERN	dne
   195                          
   196                          	EXTERN	minusfa		;FA=-FA
   197                          
   198                          	EXTERN	dswap		;Exchange FA with top of stack
   199                          	EXTERN	float		;Convert int to float
   200                          	EXTERN	ufloat		;unsigned int to float
   201                          	EXTERN	ifix		;Convert float to int
   202                          
   203                          	EXTERN	dstore		;FA->(de)
   204                          	EXTERN	dload		;FA<-(hl)
   205                          	EXTERN	dldpsh		;(hl)->(stack)
   206                          	EXTERN	dpush		;FA->(stack)
   207                          	EXTERN	dpush2		;FA->(stack under)
   208                          	EXTERN	dpush3		;FA->(stack under,long)
   209                          
   210                          	EXTERN	fa		;may not be needed in this file
   211                          	EXTERN	extra		;ditto
   212                          	EXTERN	__atof2		;string->fa conversion
   213                          	EXTERN	l_f48_ldexp	;FA * pow2(N)
   214                          	EXTERN	l_f48_f16tof	;Convert _Float16 to float
   215                          	EXTERN	l_f48_ftof16	;Convert float to _Float16
   216                          
   217                          	; 16 bit float ABI
   218                          	EXTERN	l_f16_add
   219                          	EXTERN	l_f16_sub
   220                          	EXTERN	l_f16_mul
   221                          	EXTERN	l_f16_div
   222                          	EXTERN	l_f16_le
   223                          	EXTERN	l_f16_lt
   224                          	EXTERN	l_f16_ge
   225                          	EXTERN	l_f16_gt
   226                          	EXTERN	l_f16_eq
   227                          	EXTERN	l_f16_ne
   228                          	EXTERN	l_f16_swap
   229                          	EXTERN	l_f16_schar2f
   230                          	EXTERN	l_f16_uchar2f
   231                          	EXTERN	l_f16_sint2f
   232                          	EXTERN	l_f16_uint2f
   233                          	EXTERN	l_f16_slong2f
   234                          	EXTERN	l_f16_ulong2f
   235                          	EXTERN	l_f16_f2sint
   236                          	EXTERN	l_f16_f2uint
   237                          	EXTERN	l_f16_f2slong
   238                          	EXTERN	l_f16_f2ulong
   239                          	EXTERN	l_f16_ldexp
   240                          	EXTERN	l_f16_invf	;Only for ieee16
   241                          	EXTERN	l_f16_f16tof	;A noop
   242                          	EXTERN	l_f16_ftof16	;A noop
   243                          
   244                          	; 32 bit float ABI
   245                          	EXTERN	l_f32_add
   246                          	EXTERN	l_f32_sub
   247                          	EXTERN	l_f32_mul
   248                          	EXTERN	l_f32_div
   249                          	EXTERN	l_f32_le
   250                          	EXTERN	l_f32_lt
   251                          	EXTERN	l_f32_ge
   252                          	EXTERN	l_f32_gt
   253                          	EXTERN	l_f32_eq
   254                          	EXTERN	l_f32_ne
   255                          	EXTERN	l_f32_swap
   256                          	EXTERN	l_f32_negate
   257                          	EXTERN	l_f32_schar2f
   258                          	EXTERN	l_f32_uchar2f
   259                          	EXTERN	l_f32_sint2f
   260                          	EXTERN	l_f32_uint2f
   261                          	EXTERN	l_f32_slong2f
   262                          	EXTERN	l_f32_ulong2f
   263                          	EXTERN	l_f32_f2sint
   264                          	EXTERN	l_f32_f2uint
   265                          	EXTERN	l_f32_f2slong
   266                          	EXTERN	l_f32_f2ulong
   267                          	EXTERN	l_f32_ldexp
   268                          	EXTERN	l_f32_invf	;Only for math32
   269                          	EXTERN	l_f32_f16tof	;Convert _Float16 to float
   270                          	EXTERN	l_f32_ftof16	;Convert float to _Float16
   271                          
   272                          	; 64 bit float ABI
   273                          	EXTERN	l_f64_load
   274                          	EXTERN	l_f64_add
   275                          	EXTERN	l_f64_sub
   276                          	EXTERN	l_f64_mul
   277                          	EXTERN	l_f64_div
   278                          	EXTERN	l_f64_le
   279                          	EXTERN	l_f64_lt
   280                          	EXTERN	l_f64_ge
   281                          	EXTERN	l_f64_gt
   282                          	EXTERN	l_f64_eq
   283                          	EXTERN	l_f64_ne
   284                          	EXTERN	l_f64_negate
   285                          	EXTERN	l_f64_swap
   286                          	EXTERN	l_f64_store
   287                          	EXTERN	l_f64_dpush
   288                          	EXTERN	l_f64_dldpsh
   289                          	EXTERN	l_f64_dpush2
   290                          	EXTERN	l_f64_dpush3
   291                          	EXTERN	l_f64_schar2f
   292                          	EXTERN	l_f64_uchar2f
   293                          	EXTERN	l_f64_sint2f
   294                          	EXTERN	l_f64_uint2f
   295                          	EXTERN	l_f64_slong2f
   296                          	EXTERN	l_f64_ulong2f
   297                          	EXTERN	l_f64_f2sint
   298                          	EXTERN	l_f64_f2uint
   299                          	EXTERN	l_f64_f2slong
   300                          	EXTERN	l_f64_f2ulong
   301                          	EXTERN	l_f64_ldexp
   302                          	EXTERN	l_f64_f16tof	;Convert _Float16 to float
   303                          	EXTERN	l_f64_ftof16	;Convert float to _Float16
   304                          
   305                          
   306                          ;--------------------------------------------------
   307                          ; Routines for picking up variables from far memory
   308                          ;--------------------------------------------------
   309                          
   310                          	EXTERN	lp_gchar
   311                          	EXTERN	lp_gdoub
   312                          	EXTERN	lp_gint
   313                          	EXTERN	lp_glong
   314                          	EXTERN	lp_gptr
   315                          	EXTERN	lp_pchar
   316                          	EXTERN	lp_pdoub
   317                          	EXTERN	lp_pint
   318                          	EXTERN	lp_plong
   319                          	EXTERN	lp_pptr
   320                          
   321                          	EXTERN	l_farcall	; Long call
   322                          
   323                          ;--------------------------------------------------
   324                          ; Routines for handling 16 bit fixed point for sccz80
   325                          ;--------------------------------------------------
   326                          
   327                          	EXTERN	l_f16_fix16tof
   328                          	EXTERN	l_f16_ftofix16
   329                          	EXTERN	l_f32_fix16tof
   330                          	EXTERN	l_f32_ftofix16
   331                          	EXTERN	l_f48_fix16tof
   332                          	EXTERN	l_f48_ftofix16
   333                          	EXTERN	l_f64_fix16tof
   334                          	EXTERN	l_f64_ftofix16
   335                          	EXTERN	l_fix16_divu
   336                          	EXTERN	l_fix16_divs
   337                          	EXTERN	l_fix16_f2sint
   338                          	EXTERN	l_fix16_f2slond
   339                          	EXTERN	l_fix16_f2uint
   340                          	EXTERN	l_fix16_f2ulond
   341                                  EXTERN  l_fix16_uint2f
   342                                  EXTERN  l_fix16_ulong2f
   343                                  EXTERN  l_fix16_sint2f
   344                                  EXTERN  l_fix16_slong2f
   345                          	EXTERN	l_fix16_inv
   346                          	EXTERN	l_fix16_mul
   347                          	EXTERN	l_fix16_mulu
   348                          	EXTERN	l_fix16_muls
   349                          	EXTERN	l_fix16_negate
   350                          
   351                          ;--------------------------------------------------
   352                          ; Routines for handling 64 bit integers for sccz80
   353                          ;--------------------------------------------------
   354                          
   355                          	EXTERN	__i64_acc
   356                          	EXTERN	l_i64_load
   357                          	EXTERN	l_i64_store
   358                          	EXTERN	l_i64_push
   359                          	EXTERN	l_i64_add
   360                          	EXTERN	l_i64_sub
   361                          	EXTERN	l_i64_mult
   362                          	EXTERN	l_i64_mult_u
   363                          	EXTERN	l_i64_mod
   364                          	EXTERN	l_i64_mod_u
   365                          	EXTERN	l_i64_div
   366                          	EXTERN	l_i64_div_u
   367                          	EXTERN	l_i64_or
   368                          	EXTERN	l_i64_xor
   369                          	EXTERN	l_i64_and
   370                          	EXTERN	l_i64_asr_u
   371                          	EXTERN	l_i64_asr_uo
   372                          	EXTERN	l_i64_asr
   373                          	EXTERN	l_i64_asro
   374                          	EXTERN	l_i64_asl
   375                          	EXTERN	l_i64_aslo
   376                          	EXTERN	l_i64_inc
   377                          	EXTERN	l_i64_dec
   378                          	EXTERN	l_i64_eq0
   379                          	EXTERN	l_i64_eq
   380                          	EXTERN	l_i64_ne
   381                          	EXTERN	l_i64_ge
   382                          	EXTERN	l_i64_gt
   383                          	EXTERN	l_i64_uge
   384                          	EXTERN	l_i64_ugt
   385                          	EXTERN	l_i64_le
   386                          	EXTERN	l_i64_lt
   387                          	EXTERN	l_i64_ule
   388                          	EXTERN	l_i64_ult
   389                          	EXTERN	l_i64_lneg
   390                          	EXTERN	l_i64_neg
   391                          	EXTERN	l_i64_com
   392                          	EXTERN	l_i64_case
   393                          	EXTERN	l_i64_push_under_int
   394                          	EXTERN	l_i64_push_under_int_mhl
   395                          	EXTERN	l_i64_copy
   396                          	EXTERN	l_i64_slong2i64
   397                          	EXTERN	l_i64_ulong2i64
   398                          	EXTERN	l_i64_sint2i64
   399                          	EXTERN	l_i64_uint2i64
   400                          	EXTERN	l_i64_u64_toi32
   401                          
   402                          
   403                          ;-------------------
   404                          ; Routines for SDCC
   405                          ;-------------------
   406                          
   407                          	EXTERN	__divsint_rrx_s
   408                          	EXTERN	__divsint_rrx_hds
   409                          	EXTERN	__divuint_rrx_s
   410                          	EXTERN	__divuint_rrx_hds
   411                          	EXTERN	__divsuchar_rrx_s
   412                          	EXTERN	__divuschar_rrx_s
   413                          	EXTERN	__divuchar_rrx_s
   414                          	EXTERN	__divuchar_rrx_hds
   415                          	EXTERN	__moduchar_rrx_s
   416                          	EXTERN	__moduchar_rrx_hds
   417                          	EXTERN	__moduschar_rrx_s
   418                          	EXTERN	__modsuchar_rrx_s
   419                          	EXTERN	__modschar_rrx_s
   420                          	EXTERN	__modschar_rrx_hds
   421                          	EXTERN	__modsint_rrx_s
   422                          	EXTERN	__modsint_rrx_hds
   423                          	EXTERN	__moduint_rrx_s
   424                          	EXTERN	__moduint_rrx_hds
   425                          	EXTERN	__get_remainder
   426                          	EXTERN	__divunsigned
   427                          	EXTERN	__div_signexte
   428                          	EXTERN	__divu16
   429                          	EXTERN	__div16
   430                          	EXTERN	__div8
   431                          	EXTERN	__muluchar_rrx_s
   432                          	EXTERN	__muluchar_rrx_hds
   433                          	EXTERN	__mulsuchar_rrx_s
   434                          	EXTERN	__muluschar_rrx_s
   435                          	EXTERN	__mulschar_rrx_s
   436                          	EXTERN	__mulschar_rrx_hds
   437                          	EXTERN	__mulint_rrx_s
   438                          	EXTERN	__mulint_rrx_hds
   439                          	EXTERN	__mul16
   440                          	EXTERN	__rrulong_rrx_s
   441                          	EXTERN	__rrslong_rrx_s
   442                          	EXTERN	__rlslong_rrx_s
   443                          	EXTERN	__rlulong_rrx_s
   444                          	EXTERN	__muluchar
   445                          	EXTERN	__mulschar
   446                          
   447                          	EXTERN	l_push_di
   448                          	EXTERN	l_pop_ei
   449                          
   450                          	EXTERN	l_debug_push_frame
   451                          	EXTERN	l_debug_pop_frame
   452                          
main.c:
                                
                                
                                	C_LINE	0,"C:\z88dk\lib\config\\..\..\/include/stdio.h"
C:\z88dk\lib\config\\..\..\/include/stdio.h:
                                	C_LINE	0,"C:\z88dk\lib\config\\..\..\/include/sys/compiler.h"
C:\z88dk\lib\config\\..\..\/include/sys/compiler.h:
                                	C_LINE	0,"C:\z88dk\lib\config\\..\..\/include/sys/proto.h"
C:\z88dk\lib\config\\..\..\/include/sys/proto.h:
                                	C_LINE	6,"C:\z88dk\lib\config\\..\..\/include/sys/compiler.h"
C:\z88dk\lib\config\\..\..\/include/sys/compiler.h:
     6                          	C_LINE	4,"C:\z88dk\lib\config\\..\..\/include/stdio.h"
C:\z88dk\lib\config\\..\..\/include/stdio.h:
     4                          	C_LINE	0,"C:\z88dk\lib\config\\..\..\/include/stdint.h"
C:\z88dk\lib\config\\..\..\/include/stdint.h:
                                	C_LINE	0,"C:\z88dk\lib\config\\..\..\/include/sys/types.h"
C:\z88dk\lib\config\\..\..\/include/sys/types.h:
                                	C_LINE	17,"C:\z88dk\lib\config\\..\..\/include/sys/types.h"
    17                          	C_LINE	26,"C:\z88dk\lib\config\\..\..\/include/sys/types.h"
    26                          	C_LINE	38,"C:\z88dk\lib\config\\..\..\/include/sys/types.h"
    38                          	C_LINE	44,"C:\z88dk\lib\config\\..\..\/include/sys/types.h"
    44                          	C_LINE	49,"C:\z88dk\lib\config\\..\..\/include/sys/types.h"
    49                          	C_LINE	54,"C:\z88dk\lib\config\\..\..\/include/sys/types.h"
    54                          	C_LINE	59,"C:\z88dk\lib\config\\..\..\/include/sys/types.h"
    59                          	C_LINE	64,"C:\z88dk\lib\config\\..\..\/include/sys/types.h"
    64                          	C_LINE	69,"C:\z88dk\lib\config\\..\..\/include/sys/types.h"
    69                          	C_LINE	74,"C:\z88dk\lib\config\\..\..\/include/sys/types.h"
    74                          	C_LINE	79,"C:\z88dk\lib\config\\..\..\/include/sys/types.h"
    79                          	C_LINE	84,"C:\z88dk\lib\config\\..\..\/include/sys/types.h"
    84                          	C_LINE	89,"C:\z88dk\lib\config\\..\..\/include/sys/types.h"
    89                          	C_LINE	93,"C:\z88dk\lib\config\\..\..\/include/sys/types.h"
    93                          	C_LINE	94,"C:\z88dk\lib\config\\..\..\/include/sys/types.h"
    94                          	C_LINE	95,"C:\z88dk\lib\config\\..\..\/include/sys/types.h"
    95                          	C_LINE	97,"C:\z88dk\lib\config\\..\..\/include/sys/types.h"
    97                          	C_LINE	98,"C:\z88dk\lib\config\\..\..\/include/sys/types.h"
    98                          	C_LINE	99,"C:\z88dk\lib\config\\..\..\/include/sys/types.h"
    99                          	C_LINE	105,"C:\z88dk\lib\config\\..\..\/include/sys/types.h"
   105                          	C_LINE	110,"C:\z88dk\lib\config\\..\..\/include/sys/types.h"
   110                          	C_LINE	11,"C:\z88dk\lib\config\\..\..\/include/stdint.h"
C:\z88dk\lib\config\\..\..\/include/stdint.h:
    11                          	C_LINE	13,"C:\z88dk\lib\config\\..\..\/include/stdint.h"
    13                          	C_LINE	14,"C:\z88dk\lib\config\\..\..\/include/stdint.h"
    14                          	C_LINE	15,"C:\z88dk\lib\config\\..\..\/include/stdint.h"
    15                          	C_LINE	17,"C:\z88dk\lib\config\\..\..\/include/stdint.h"
    17                          	C_LINE	18,"C:\z88dk\lib\config\\..\..\/include/stdint.h"
    18                          	C_LINE	19,"C:\z88dk\lib\config\\..\..\/include/stdint.h"
    19                          	C_LINE	21,"C:\z88dk\lib\config\\..\..\/include/stdint.h"
    21                          	C_LINE	22,"C:\z88dk\lib\config\\..\..\/include/stdint.h"
    22                          	C_LINE	23,"C:\z88dk\lib\config\\..\..\/include/stdint.h"
    23                          	C_LINE	25,"C:\z88dk\lib\config\\..\..\/include/stdint.h"
    25                          	C_LINE	26,"C:\z88dk\lib\config\\..\..\/include/stdint.h"
    26                          	C_LINE	27,"C:\z88dk\lib\config\\..\..\/include/stdint.h"
    27                          	C_LINE	29,"C:\z88dk\lib\config\\..\..\/include/stdint.h"
    29                          	C_LINE	30,"C:\z88dk\lib\config\\..\..\/include/stdint.h"
    30                          	C_LINE	31,"C:\z88dk\lib\config\\..\..\/include/stdint.h"
    31                          	C_LINE	33,"C:\z88dk\lib\config\\..\..\/include/stdint.h"
    33                          	C_LINE	34,"C:\z88dk\lib\config\\..\..\/include/stdint.h"
    34                          	C_LINE	35,"C:\z88dk\lib\config\\..\..\/include/stdint.h"
    35                          	C_LINE	37,"C:\z88dk\lib\config\\..\..\/include/stdint.h"
    37                          	C_LINE	38,"C:\z88dk\lib\config\\..\..\/include/stdint.h"
    38                          	C_LINE	40,"C:\z88dk\lib\config\\..\..\/include/stdint.h"
    40                          	C_LINE	41,"C:\z88dk\lib\config\\..\..\/include/stdint.h"
    41                          	C_LINE	43,"C:\z88dk\lib\config\\..\..\/include/stdint.h"
    43                          	C_LINE	44,"C:\z88dk\lib\config\\..\..\/include/stdint.h"
    44                          	C_LINE	49,"C:\z88dk\lib\config\\..\..\/include/stdint.h"
    49                          	C_LINE	52,"C:\z88dk\lib\config\\..\..\/include/stdint.h"
    52                          	C_LINE	54,"C:\z88dk\lib\config\\..\..\/include/stdint.h"
    54                          	C_LINE	55,"C:\z88dk\lib\config\\..\..\/include/stdint.h"
    55                          	C_LINE	5,"C:\z88dk\lib\config\\..\..\/include/stdio.h"
C:\z88dk\lib\config\\..\..\/include/stdio.h:
     5                          	C_LINE	0,"C:\z88dk\lib\config\\..\..\/include/fcntl.h"
C:\z88dk\lib\config\\..\..\/include/fcntl.h:
                                	C_LINE	34,"C:\z88dk\lib\config\\..\..\/include/fcntl.h"
    34                          	C_LINE	36,"C:\z88dk\lib\config\\..\..\/include/fcntl.h"
    36                          	C_LINE	37,"C:\z88dk\lib\config\\..\..\/include/fcntl.h"
    37                          	C_LINE	39,"C:\z88dk\lib\config\\..\..\/include/fcntl.h"
    39                          	C_LINE	41,"C:\z88dk\lib\config\\..\..\/include/fcntl.h"
    41                          	C_LINE	42,"C:\z88dk\lib\config\\..\..\/include/fcntl.h"
    42                          	C_LINE	45,"C:\z88dk\lib\config\\..\..\/include/fcntl.h"
    45                          	C_LINE	50,"C:\z88dk\lib\config\\..\..\/include/fcntl.h"
    50                          	C_LINE	51,"C:\z88dk\lib\config\\..\..\/include/fcntl.h"
    51                          	C_LINE	53,"C:\z88dk\lib\config\\..\..\/include/fcntl.h"
    53                          	C_LINE	59,"C:\z88dk\lib\config\\..\..\/include/fcntl.h"
    59                          	C_LINE	60,"C:\z88dk\lib\config\\..\..\/include/fcntl.h"
    60                          	C_LINE	61,"C:\z88dk\lib\config\\..\..\/include/fcntl.h"
    61                          	C_LINE	64,"C:\z88dk\lib\config\\..\..\/include/fcntl.h"
    64                          	C_LINE	83,"C:\z88dk\lib\config\\..\..\/include/fcntl.h"
    83                          	C_LINE	92,"C:\z88dk\lib\config\\..\..\/include/fcntl.h"
    92                          	C_LINE	105,"C:\z88dk\lib\config\\..\..\/include/fcntl.h"
   105                          	C_LINE	106,"C:\z88dk\lib\config\\..\..\/include/fcntl.h"
   106                          	C_LINE	108,"C:\z88dk\lib\config\\..\..\/include/fcntl.h"
   108                          	C_LINE	110,"C:\z88dk\lib\config\\..\..\/include/fcntl.h"
   110                          	C_LINE	78,"C:\z88dk\lib\config\\..\..\/include/stdio.h"
C:\z88dk\lib\config\\..\..\/include/stdio.h:
    78                          	C_LINE	91,"C:\z88dk\lib\config\\..\..\/include/stdio.h"
    91                          	C_LINE	141,"C:\z88dk\lib\config\\..\..\/include/stdio.h"
   141                          	C_LINE	160,"C:\z88dk\lib\config\\..\..\/include/stdio.h"
   160                          	C_LINE	165,"C:\z88dk\lib\config\\..\..\/include/stdio.h"
   165                          	C_LINE	166,"C:\z88dk\lib\config\\..\..\/include/stdio.h"
   166                          	C_LINE	175,"C:\z88dk\lib\config\\..\..\/include/stdio.h"
   175                          	C_LINE	178,"C:\z88dk\lib\config\\..\..\/include/stdio.h"
   178                          	C_LINE	182,"C:\z88dk\lib\config\\..\..\/include/stdio.h"
   182                          	C_LINE	183,"C:\z88dk\lib\config\\..\..\/include/stdio.h"
   183                          	C_LINE	184,"C:\z88dk\lib\config\\..\..\/include/stdio.h"
   184                          	C_LINE	186,"C:\z88dk\lib\config\\..\..\/include/stdio.h"
   186                          	C_LINE	187,"C:\z88dk\lib\config\\..\..\/include/stdio.h"
   187                          	C_LINE	191,"C:\z88dk\lib\config\\..\..\/include/stdio.h"
   191                          	C_LINE	196,"C:\z88dk\lib\config\\..\..\/include/stdio.h"
   196                          	C_LINE	197,"C:\z88dk\lib\config\\..\..\/include/stdio.h"
   197                          	C_LINE	199,"C:\z88dk\lib\config\\..\..\/include/stdio.h"
   199                          	C_LINE	206,"C:\z88dk\lib\config\\..\..\/include/stdio.h"
   206                          	C_LINE	208,"C:\z88dk\lib\config\\..\..\/include/stdio.h"
   208                          	C_LINE	210,"C:\z88dk\lib\config\\..\..\/include/stdio.h"
   210                          	C_LINE	216,"C:\z88dk\lib\config\\..\..\/include/stdio.h"
   216                          	C_LINE	218,"C:\z88dk\lib\config\\..\..\/include/stdio.h"
   218                          	C_LINE	228,"C:\z88dk\lib\config\\..\..\/include/stdio.h"
   228                          	C_LINE	231,"C:\z88dk\lib\config\\..\..\/include/stdio.h"
   231                          	C_LINE	233,"C:\z88dk\lib\config\\..\..\/include/stdio.h"
   233                          	C_LINE	235,"C:\z88dk\lib\config\\..\..\/include/stdio.h"
   235                          	C_LINE	240,"C:\z88dk\lib\config\\..\..\/include/stdio.h"
   240                          	C_LINE	242,"C:\z88dk\lib\config\\..\..\/include/stdio.h"
   242                          	C_LINE	246,"C:\z88dk\lib\config\\..\..\/include/stdio.h"
   246                          	C_LINE	255,"C:\z88dk\lib\config\\..\..\/include/stdio.h"
   255                          	C_LINE	256,"C:\z88dk\lib\config\\..\..\/include/stdio.h"
   256                          	C_LINE	260,"C:\z88dk\lib\config\\..\..\/include/stdio.h"
   260                          	C_LINE	269,"C:\z88dk\lib\config\\..\..\/include/stdio.h"
   269                          	C_LINE	270,"C:\z88dk\lib\config\\..\..\/include/stdio.h"
   270                          	C_LINE	273,"C:\z88dk\lib\config\\..\..\/include/stdio.h"
   273                          	C_LINE	275,"C:\z88dk\lib\config\\..\..\/include/stdio.h"
   275                          	C_LINE	276,"C:\z88dk\lib\config\\..\..\/include/stdio.h"
   276                          	C_LINE	277,"C:\z88dk\lib\config\\..\..\/include/stdio.h"
   277                          	C_LINE	278,"C:\z88dk\lib\config\\..\..\/include/stdio.h"
   278                          	C_LINE	279,"C:\z88dk\lib\config\\..\..\/include/stdio.h"
   279                          	C_LINE	280,"C:\z88dk\lib\config\\..\..\/include/stdio.h"
   280                          	C_LINE	286,"C:\z88dk\lib\config\\..\..\/include/stdio.h"
   286                          	C_LINE	293,"C:\z88dk\lib\config\\..\..\/include/stdio.h"
   293                          	C_LINE	294,"C:\z88dk\lib\config\\..\..\/include/stdio.h"
   294                          	C_LINE	295,"C:\z88dk\lib\config\\..\..\/include/stdio.h"
   295                          	C_LINE	296,"C:\z88dk\lib\config\\..\..\/include/stdio.h"
   296                          	C_LINE	297,"C:\z88dk\lib\config\\..\..\/include/stdio.h"
   297                          	C_LINE	307,"C:\z88dk\lib\config\\..\..\/include/stdio.h"
   307                          	C_LINE	312,"C:\z88dk\lib\config\\..\..\/include/stdio.h"
   312                          	C_LINE	317,"C:\z88dk\lib\config\\..\..\/include/stdio.h"
   317                          	C_LINE	320,"C:\z88dk\lib\config\\..\..\/include/stdio.h"
   320                          	C_LINE	323,"C:\z88dk\lib\config\\..\..\/include/stdio.h"
   323                          	C_LINE	326,"C:\z88dk\lib\config\\..\..\/include/stdio.h"
   326                          	C_LINE	328,"C:\z88dk\lib\config\\..\..\/include/stdio.h"
   328                          	C_LINE	331,"C:\z88dk\lib\config\\..\..\/include/stdio.h"
   331                          	C_LINE	333,"C:\z88dk\lib\config\\..\..\/include/stdio.h"
   333                          	C_LINE	334,"C:\z88dk\lib\config\\..\..\/include/stdio.h"
   334                          	C_LINE	336,"C:\z88dk\lib\config\\..\..\/include/stdio.h"
   336                          	C_LINE	338,"C:\z88dk\lib\config\\..\..\/include/stdio.h"
   338                          	C_LINE	342,"C:\z88dk\lib\config\\..\..\/include/stdio.h"
   342                          	C_LINE	344,"C:\z88dk\lib\config\\..\..\/include/stdio.h"
   344                          	C_LINE	348,"C:\z88dk\lib\config\\..\..\/include/stdio.h"
   348                          	C_LINE	351,"C:\z88dk\lib\config\\..\..\/include/stdio.h"
   351                          	C_LINE	360,"C:\z88dk\lib\config\\..\..\/include/stdio.h"
   360                          	C_LINE	362,"C:\z88dk\lib\config\\..\..\/include/stdio.h"
   362                          	C_LINE	365,"C:\z88dk\lib\config\\..\..\/include/stdio.h"
   365                          	C_LINE	367,"C:\z88dk\lib\config\\..\..\/include/stdio.h"
   367                          	C_LINE	369,"C:\z88dk\lib\config\\..\..\/include/stdio.h"
   369                          	C_LINE	1,"main.c"
main.c:
     1                          	C_LINE	0,"C:\z88dk\lib\config\\..\..\/include/stdlib.h"
C:\z88dk\lib\config\\..\..\/include/stdlib.h:
                                	C_LINE	27,"C:\z88dk\lib\config\\..\..\/include/stdlib.h"
    27                          	C_LINE	29,"C:\z88dk\lib\config\\..\..\/include/stdlib.h"
    29                          	C_LINE	33,"C:\z88dk\lib\config\\..\..\/include/stdlib.h"
    33                          	C_LINE	35,"C:\z88dk\lib\config\\..\..\/include/stdlib.h"
    35                          	C_LINE	39,"C:\z88dk\lib\config\\..\..\/include/stdlib.h"
    39                          	C_LINE	41,"C:\z88dk\lib\config\\..\..\/include/stdlib.h"
    41                          	C_LINE	45,"C:\z88dk\lib\config\\..\..\/include/stdlib.h"
    45                          	C_LINE	47,"C:\z88dk\lib\config\\..\..\/include/stdlib.h"
    47                          	C_LINE	51,"C:\z88dk\lib\config\\..\..\/include/stdlib.h"
    51                          	C_LINE	53,"C:\z88dk\lib\config\\..\..\/include/stdlib.h"
    53                          	C_LINE	57,"C:\z88dk\lib\config\\..\..\/include/stdlib.h"
    57                          	C_LINE	59,"C:\z88dk\lib\config\\..\..\/include/stdlib.h"
    59                          	C_LINE	63,"C:\z88dk\lib\config\\..\..\/include/stdlib.h"
    63                          	C_LINE	65,"C:\z88dk\lib\config\\..\..\/include/stdlib.h"
    65                          	C_LINE	69,"C:\z88dk\lib\config\\..\..\/include/stdlib.h"
    69                          	C_LINE	71,"C:\z88dk\lib\config\\..\..\/include/stdlib.h"
    71                          	C_LINE	79,"C:\z88dk\lib\config\\..\..\/include/stdlib.h"
    79                          	C_LINE	81,"C:\z88dk\lib\config\\..\..\/include/stdlib.h"
    81                          	C_LINE	86,"C:\z88dk\lib\config\\..\..\/include/stdlib.h"
    86                          	C_LINE	88,"C:\z88dk\lib\config\\..\..\/include/stdlib.h"
    88                          	C_LINE	93,"C:\z88dk\lib\config\\..\..\/include/stdlib.h"
    93                          	C_LINE	95,"C:\z88dk\lib\config\\..\..\/include/stdlib.h"
    95                          	C_LINE	100,"C:\z88dk\lib\config\\..\..\/include/stdlib.h"
   100                          	C_LINE	102,"C:\z88dk\lib\config\\..\..\/include/stdlib.h"
   102                          	C_LINE	107,"C:\z88dk\lib\config\\..\..\/include/stdlib.h"
   107                          	C_LINE	109,"C:\z88dk\lib\config\\..\..\/include/stdlib.h"
   109                          	C_LINE	119,"C:\z88dk\lib\config\\..\..\/include/stdlib.h"
   119                          	C_LINE	120,"C:\z88dk\lib\config\\..\..\/include/stdlib.h"
   120                          	C_LINE	122,"C:\z88dk\lib\config\\..\..\/include/stdlib.h"
   122                          	C_LINE	0,"C:\z88dk\lib\config\\..\..\/include/malloc.h"
C:\z88dk\lib\config\\..\..\/include/malloc.h:
                                	C_LINE	69,"C:\z88dk\lib\config\\..\..\/include/malloc.h"
    69                          	C_LINE	70,"C:\z88dk\lib\config\\..\..\/include/malloc.h"
    70                          	C_LINE	71,"C:\z88dk\lib\config\\..\..\/include/malloc.h"
    71                          	C_LINE	72,"C:\z88dk\lib\config\\..\..\/include/malloc.h"
    72                          	C_LINE	73,"C:\z88dk\lib\config\\..\..\/include/malloc.h"
    73                          	C_LINE	74,"C:\z88dk\lib\config\\..\..\/include/malloc.h"
    74                          	C_LINE	75,"C:\z88dk\lib\config\\..\..\/include/malloc.h"
    75                          	C_LINE	80,"C:\z88dk\lib\config\\..\..\/include/malloc.h"
    80                          	C_LINE	81,"C:\z88dk\lib\config\\..\..\/include/malloc.h"
    81                          	C_LINE	82,"C:\z88dk\lib\config\\..\..\/include/malloc.h"
    82                          	C_LINE	83,"C:\z88dk\lib\config\\..\..\/include/malloc.h"
    83                          	C_LINE	84,"C:\z88dk\lib\config\\..\..\/include/malloc.h"
    84                          	C_LINE	85,"C:\z88dk\lib\config\\..\..\/include/malloc.h"
    85                          	C_LINE	140,"C:\z88dk\lib\config\\..\..\/include/malloc.h"
   140                          	C_LINE	141,"C:\z88dk\lib\config\\..\..\/include/malloc.h"
   141                          	C_LINE	142,"C:\z88dk\lib\config\\..\..\/include/malloc.h"
   142                          	C_LINE	143,"C:\z88dk\lib\config\\..\..\/include/malloc.h"
   143                          	C_LINE	144,"C:\z88dk\lib\config\\..\..\/include/malloc.h"
   144                          	C_LINE	145,"C:\z88dk\lib\config\\..\..\/include/malloc.h"
   145                          	C_LINE	146,"C:\z88dk\lib\config\\..\..\/include/malloc.h"
   146                          	C_LINE	147,"C:\z88dk\lib\config\\..\..\/include/malloc.h"
   147                          	C_LINE	148,"C:\z88dk\lib\config\\..\..\/include/malloc.h"
   148                          	C_LINE	149,"C:\z88dk\lib\config\\..\..\/include/malloc.h"
   149                          	C_LINE	150,"C:\z88dk\lib\config\\..\..\/include/malloc.h"
   150                          	C_LINE	151,"C:\z88dk\lib\config\\..\..\/include/malloc.h"
   151                          	C_LINE	152,"C:\z88dk\lib\config\\..\..\/include/malloc.h"
   152                          	C_LINE	138,"C:\z88dk\lib\config\\..\..\/include/stdlib.h"
C:\z88dk\lib\config\\..\..\/include/stdlib.h:
   138                          	C_LINE	151,"C:\z88dk\lib\config\\..\..\/include/stdlib.h"
   151                          	C_LINE	152,"C:\z88dk\lib\config\\..\..\/include/stdlib.h"
   152                          	C_LINE	155,"C:\z88dk\lib\config\\..\..\/include/stdlib.h"
   155                          	C_LINE	156,"C:\z88dk\lib\config\\..\..\/include/stdlib.h"
   156                          	C_LINE	164,"C:\z88dk\lib\config\\..\..\/include/stdlib.h"
   164                          	C_LINE	165,"C:\z88dk\lib\config\\..\..\/include/stdlib.h"
   165                          	C_LINE	166,"C:\z88dk\lib\config\\..\..\/include/stdlib.h"
   166                          	C_LINE	167,"C:\z88dk\lib\config\\..\..\/include/stdlib.h"
   167                          	C_LINE	171,"C:\z88dk\lib\config\\..\..\/include/stdlib.h"
   171                          	C_LINE	174,"C:\z88dk\lib\config\\..\..\/include/stdlib.h"
   174                          	C_LINE	175,"C:\z88dk\lib\config\\..\..\/include/stdlib.h"
   175                          	C_LINE	176,"C:\z88dk\lib\config\\..\..\/include/stdlib.h"
   176                          	C_LINE	177,"C:\z88dk\lib\config\\..\..\/include/stdlib.h"
   177                          	C_LINE	178,"C:\z88dk\lib\config\\..\..\/include/stdlib.h"
   178                          	C_LINE	190,"C:\z88dk\lib\config\\..\..\/include/stdlib.h"
   190                          	C_LINE	191,"C:\z88dk\lib\config\\..\..\/include/stdlib.h"
   191                          	C_LINE	192,"C:\z88dk\lib\config\\..\..\/include/stdlib.h"
   192                          	C_LINE	193,"C:\z88dk\lib\config\\..\..\/include/stdlib.h"
   193                          	C_LINE	197,"C:\z88dk\lib\config\\..\..\/include/stdlib.h"
   197                          	C_LINE	198,"C:\z88dk\lib\config\\..\..\/include/stdlib.h"
   198                          	C_LINE	200,"C:\z88dk\lib\config\\..\..\/include/stdlib.h"
   200                          	C_LINE	201,"C:\z88dk\lib\config\\..\..\/include/stdlib.h"
   201                          	C_LINE	226,"C:\z88dk\lib\config\\..\..\/include/stdlib.h"
   226                          	C_LINE	234,"C:\z88dk\lib\config\\..\..\/include/stdlib.h"
   234                          	C_LINE	242,"C:\z88dk\lib\config\\..\..\/include/stdlib.h"
   242                          	C_LINE	250,"C:\z88dk\lib\config\\..\..\/include/stdlib.h"
   250                          	C_LINE	258,"C:\z88dk\lib\config\\..\..\/include/stdlib.h"
   258                          	C_LINE	260,"C:\z88dk\lib\config\\..\..\/include/stdlib.h"
   260                          	C_LINE	265,"C:\z88dk\lib\config\\..\..\/include/stdlib.h"
   265                          	C_LINE	267,"C:\z88dk\lib\config\\..\..\/include/stdlib.h"
   267                          	C_LINE	272,"C:\z88dk\lib\config\\..\..\/include/stdlib.h"
   272                          	C_LINE	274,"C:\z88dk\lib\config\\..\..\/include/stdlib.h"
   274                          	C_LINE	279,"C:\z88dk\lib\config\\..\..\/include/stdlib.h"
   279                          	C_LINE	281,"C:\z88dk\lib\config\\..\..\/include/stdlib.h"
   281                          	C_LINE	291,"C:\z88dk\lib\config\\..\..\/include/stdlib.h"
   291                          	C_LINE	293,"C:\z88dk\lib\config\\..\..\/include/stdlib.h"
   293                          	C_LINE	297,"C:\z88dk\lib\config\\..\..\/include/stdlib.h"
   297                          	C_LINE	299,"C:\z88dk\lib\config\\..\..\/include/stdlib.h"
   299                          	C_LINE	304,"C:\z88dk\lib\config\\..\..\/include/stdlib.h"
   304                          	C_LINE	306,"C:\z88dk\lib\config\\..\..\/include/stdlib.h"
   306                          	C_LINE	323,"C:\z88dk\lib\config\\..\..\/include/stdlib.h"
   323                          	C_LINE	325,"C:\z88dk\lib\config\\..\..\/include/stdlib.h"
   325                          	C_LINE	329,"C:\z88dk\lib\config\\..\..\/include/stdlib.h"
   329                          	C_LINE	331,"C:\z88dk\lib\config\\..\..\/include/stdlib.h"
   331                          	C_LINE	344,"C:\z88dk\lib\config\\..\..\/include/stdlib.h"
   344                          	C_LINE	348,"C:\z88dk\lib\config\\..\..\/include/stdlib.h"
   348                          	C_LINE	349,"C:\z88dk\lib\config\\..\..\/include/stdlib.h"
   349                          	C_LINE	352,"C:\z88dk\lib\config\\..\..\/include/stdlib.h"
   352                          	C_LINE	353,"C:\z88dk\lib\config\\..\..\/include/stdlib.h"
   353                          	C_LINE	357,"C:\z88dk\lib\config\\..\..\/include/stdlib.h"
   357                          	C_LINE	359,"C:\z88dk\lib\config\\..\..\/include/stdlib.h"
   359                          	C_LINE	362,"C:\z88dk\lib\config\\..\..\/include/stdlib.h"
   362                          	C_LINE	363,"C:\z88dk\lib\config\\..\..\/include/stdlib.h"
   363                          	C_LINE	378,"C:\z88dk\lib\config\\..\..\/include/stdlib.h"
   378                          	C_LINE	380,"C:\z88dk\lib\config\\..\..\/include/stdlib.h"
   380                          	C_LINE	382,"C:\z88dk\lib\config\\..\..\/include/stdlib.h"
   382                          	C_LINE	386,"C:\z88dk\lib\config\\..\..\/include/stdlib.h"
   386                          	C_LINE	388,"C:\z88dk\lib\config\\..\..\/include/stdlib.h"
   388                          	C_LINE	406,"C:\z88dk\lib\config\\..\..\/include/stdlib.h"
   406                          	C_LINE	408,"C:\z88dk\lib\config\\..\..\/include/stdlib.h"
   408                          	C_LINE	413,"C:\z88dk\lib\config\\..\..\/include/stdlib.h"
   413                          	C_LINE	416,"C:\z88dk\lib\config\\..\..\/include/stdlib.h"
   416                          	C_LINE	2,"main.c"
main.c:
     2                          	C_LINE	0,"C:\z88dk\lib\config\\..\..\/include/string.h"
C:\z88dk\lib\config\\..\..\/include/string.h:
                                	C_LINE	7,"C:\z88dk\lib\config\\..\..\/include/string.h"
     7                          	C_LINE	9,"C:\z88dk\lib\config\\..\..\/include/string.h"
     9                          	C_LINE	13,"C:\z88dk\lib\config\\..\..\/include/string.h"
    13                          	C_LINE	15,"C:\z88dk\lib\config\\..\..\/include/string.h"
    15                          	C_LINE	19,"C:\z88dk\lib\config\\..\..\/include/string.h"
    19                          	C_LINE	21,"C:\z88dk\lib\config\\..\..\/include/string.h"
    21                          	C_LINE	25,"C:\z88dk\lib\config\\..\..\/include/string.h"
    25                          	C_LINE	27,"C:\z88dk\lib\config\\..\..\/include/string.h"
    27                          	C_LINE	32,"C:\z88dk\lib\config\\..\..\/include/string.h"
    32                          	C_LINE	34,"C:\z88dk\lib\config\\..\..\/include/string.h"
    34                          	C_LINE	38,"C:\z88dk\lib\config\\..\..\/include/string.h"
    38                          	C_LINE	40,"C:\z88dk\lib\config\\..\..\/include/string.h"
    40                          	C_LINE	44,"C:\z88dk\lib\config\\..\..\/include/string.h"
    44                          	C_LINE	46,"C:\z88dk\lib\config\\..\..\/include/string.h"
    46                          	C_LINE	50,"C:\z88dk\lib\config\\..\..\/include/string.h"
    50                          	C_LINE	52,"C:\z88dk\lib\config\\..\..\/include/string.h"
    52                          	C_LINE	57,"C:\z88dk\lib\config\\..\..\/include/string.h"
    57                          	C_LINE	59,"C:\z88dk\lib\config\\..\..\/include/string.h"
    59                          	C_LINE	63,"C:\z88dk\lib\config\\..\..\/include/string.h"
    63                          	C_LINE	65,"C:\z88dk\lib\config\\..\..\/include/string.h"
    65                          	C_LINE	69,"C:\z88dk\lib\config\\..\..\/include/string.h"
    69                          	C_LINE	71,"C:\z88dk\lib\config\\..\..\/include/string.h"
    71                          	C_LINE	76,"C:\z88dk\lib\config\\..\..\/include/string.h"
    76                          	C_LINE	77,"C:\z88dk\lib\config\\..\..\/include/string.h"
    77                          	C_LINE	78,"C:\z88dk\lib\config\\..\..\/include/string.h"
    78                          	C_LINE	81,"C:\z88dk\lib\config\\..\..\/include/string.h"
    81                          	C_LINE	83,"C:\z88dk\lib\config\\..\..\/include/string.h"
    83                          	C_LINE	87,"C:\z88dk\lib\config\\..\..\/include/string.h"
    87                          	C_LINE	89,"C:\z88dk\lib\config\\..\..\/include/string.h"
    89                          	C_LINE	94,"C:\z88dk\lib\config\\..\..\/include/string.h"
    94                          	C_LINE	96,"C:\z88dk\lib\config\\..\..\/include/string.h"
    96                          	C_LINE	101,"C:\z88dk\lib\config\\..\..\/include/string.h"
   101                          	C_LINE	103,"C:\z88dk\lib\config\\..\..\/include/string.h"
   103                          	C_LINE	108,"C:\z88dk\lib\config\\..\..\/include/string.h"
   108                          	C_LINE	110,"C:\z88dk\lib\config\\..\..\/include/string.h"
   110                          	C_LINE	115,"C:\z88dk\lib\config\\..\..\/include/string.h"
   115                          	C_LINE	117,"C:\z88dk\lib\config\\..\..\/include/string.h"
   117                          	C_LINE	122,"C:\z88dk\lib\config\\..\..\/include/string.h"
   122                          	C_LINE	124,"C:\z88dk\lib\config\\..\..\/include/string.h"
   124                          	C_LINE	128,"C:\z88dk\lib\config\\..\..\/include/string.h"
   128                          	C_LINE	130,"C:\z88dk\lib\config\\..\..\/include/string.h"
   130                          	C_LINE	138,"C:\z88dk\lib\config\\..\..\/include/string.h"
   138                          	C_LINE	140,"C:\z88dk\lib\config\\..\..\/include/string.h"
   140                          	C_LINE	144,"C:\z88dk\lib\config\\..\..\/include/string.h"
   144                          	C_LINE	146,"C:\z88dk\lib\config\\..\..\/include/string.h"
   146                          	C_LINE	150,"C:\z88dk\lib\config\\..\..\/include/string.h"
   150                          	C_LINE	152,"C:\z88dk\lib\config\\..\..\/include/string.h"
   152                          	C_LINE	157,"C:\z88dk\lib\config\\..\..\/include/string.h"
   157                          	C_LINE	159,"C:\z88dk\lib\config\\..\..\/include/string.h"
   159                          	C_LINE	163,"C:\z88dk\lib\config\\..\..\/include/string.h"
   163                          	C_LINE	165,"C:\z88dk\lib\config\\..\..\/include/string.h"
   165                          	C_LINE	169,"C:\z88dk\lib\config\\..\..\/include/string.h"
   169                          	C_LINE	171,"C:\z88dk\lib\config\\..\..\/include/string.h"
   171                          	C_LINE	175,"C:\z88dk\lib\config\\..\..\/include/string.h"
   175                          	C_LINE	177,"C:\z88dk\lib\config\\..\..\/include/string.h"
   177                          	C_LINE	181,"C:\z88dk\lib\config\\..\..\/include/string.h"
   181                          	C_LINE	183,"C:\z88dk\lib\config\\..\..\/include/string.h"
   183                          	C_LINE	187,"C:\z88dk\lib\config\\..\..\/include/string.h"
   187                          	C_LINE	189,"C:\z88dk\lib\config\\..\..\/include/string.h"
   189                          	C_LINE	193,"C:\z88dk\lib\config\\..\..\/include/string.h"
   193                          	C_LINE	195,"C:\z88dk\lib\config\\..\..\/include/string.h"
   195                          	C_LINE	199,"C:\z88dk\lib\config\\..\..\/include/string.h"
   199                          	C_LINE	201,"C:\z88dk\lib\config\\..\..\/include/string.h"
   201                          	C_LINE	205,"C:\z88dk\lib\config\\..\..\/include/string.h"
   205                          	C_LINE	207,"C:\z88dk\lib\config\\..\..\/include/string.h"
   207                          	C_LINE	212,"C:\z88dk\lib\config\\..\..\/include/string.h"
   212                          	C_LINE	214,"C:\z88dk\lib\config\\..\..\/include/string.h"
   214                          	C_LINE	219,"C:\z88dk\lib\config\\..\..\/include/string.h"
   219                          	C_LINE	221,"C:\z88dk\lib\config\\..\..\/include/string.h"
   221                          	C_LINE	226,"C:\z88dk\lib\config\\..\..\/include/string.h"
   226                          	C_LINE	228,"C:\z88dk\lib\config\\..\..\/include/string.h"
   228                          	C_LINE	232,"C:\z88dk\lib\config\\..\..\/include/string.h"
   232                          	C_LINE	234,"C:\z88dk\lib\config\\..\..\/include/string.h"
   234                          	C_LINE	238,"C:\z88dk\lib\config\\..\..\/include/string.h"
   238                          	C_LINE	240,"C:\z88dk\lib\config\\..\..\/include/string.h"
   240                          	C_LINE	245,"C:\z88dk\lib\config\\..\..\/include/string.h"
   245                          	C_LINE	247,"C:\z88dk\lib\config\\..\..\/include/string.h"
   247                          	C_LINE	253,"C:\z88dk\lib\config\\..\..\/include/string.h"
   253                          	C_LINE	255,"C:\z88dk\lib\config\\..\..\/include/string.h"
   255                          	C_LINE	259,"C:\z88dk\lib\config\\..\..\/include/string.h"
   259                          	C_LINE	261,"C:\z88dk\lib\config\\..\..\/include/string.h"
   261                          	C_LINE	265,"C:\z88dk\lib\config\\..\..\/include/string.h"
   265                          	C_LINE	267,"C:\z88dk\lib\config\\..\..\/include/string.h"
   267                          	C_LINE	271,"C:\z88dk\lib\config\\..\..\/include/string.h"
   271                          	C_LINE	273,"C:\z88dk\lib\config\\..\..\/include/string.h"
   273                          	C_LINE	278,"C:\z88dk\lib\config\\..\..\/include/string.h"
   278                          	C_LINE	280,"C:\z88dk\lib\config\\..\..\/include/string.h"
   280                          	C_LINE	284,"C:\z88dk\lib\config\\..\..\/include/string.h"
   284                          	C_LINE	286,"C:\z88dk\lib\config\\..\..\/include/string.h"
   286                          	C_LINE	290,"C:\z88dk\lib\config\\..\..\/include/string.h"
   290                          	C_LINE	292,"C:\z88dk\lib\config\\..\..\/include/string.h"
   292                          	C_LINE	296,"C:\z88dk\lib\config\\..\..\/include/string.h"
   296                          	C_LINE	298,"C:\z88dk\lib\config\\..\..\/include/string.h"
   298                          	C_LINE	302,"C:\z88dk\lib\config\\..\..\/include/string.h"
   302                          	C_LINE	304,"C:\z88dk\lib\config\\..\..\/include/string.h"
   304                          	C_LINE	308,"C:\z88dk\lib\config\\..\..\/include/string.h"
   308                          	C_LINE	310,"C:\z88dk\lib\config\\..\..\/include/string.h"
   310                          	C_LINE	314,"C:\z88dk\lib\config\\..\..\/include/string.h"
   314                          	C_LINE	316,"C:\z88dk\lib\config\\..\..\/include/string.h"
   316                          	C_LINE	320,"C:\z88dk\lib\config\\..\..\/include/string.h"
   320                          	C_LINE	321,"C:\z88dk\lib\config\\..\..\/include/string.h"
   321                          	C_LINE	323,"C:\z88dk\lib\config\\..\..\/include/string.h"
   323                          	C_LINE	328,"C:\z88dk\lib\config\\..\..\/include/string.h"
   328                          	C_LINE	330,"C:\z88dk\lib\config\\..\..\/include/string.h"
   330                          	C_LINE	335,"C:\z88dk\lib\config\\..\..\/include/string.h"
   335                          	C_LINE	336,"C:\z88dk\lib\config\\..\..\/include/string.h"
   336                          	C_LINE	338,"C:\z88dk\lib\config\\..\..\/include/string.h"
   338                          	C_LINE	343,"C:\z88dk\lib\config\\..\..\/include/string.h"
   343                          	C_LINE	345,"C:\z88dk\lib\config\\..\..\/include/string.h"
   345                          	C_LINE	349,"C:\z88dk\lib\config\\..\..\/include/string.h"
   349                          	C_LINE	351,"C:\z88dk\lib\config\\..\..\/include/string.h"
   351                          	C_LINE	355,"C:\z88dk\lib\config\\..\..\/include/string.h"
   355                          	C_LINE	357,"C:\z88dk\lib\config\\..\..\/include/string.h"
   357                          	C_LINE	361,"C:\z88dk\lib\config\\..\..\/include/string.h"
   361                          	C_LINE	363,"C:\z88dk\lib\config\\..\..\/include/string.h"
   363                          	C_LINE	369,"C:\z88dk\lib\config\\..\..\/include/string.h"
   369                          	C_LINE	371,"C:\z88dk\lib\config\\..\..\/include/string.h"
   371                          	C_LINE	375,"C:\z88dk\lib\config\\..\..\/include/string.h"
   375                          	C_LINE	377,"C:\z88dk\lib\config\\..\..\/include/string.h"
   377                          	C_LINE	381,"C:\z88dk\lib\config\\..\..\/include/string.h"
   381                          	C_LINE	383,"C:\z88dk\lib\config\\..\..\/include/string.h"
   383                          	C_LINE	387,"C:\z88dk\lib\config\\..\..\/include/string.h"
   387                          	C_LINE	389,"C:\z88dk\lib\config\\..\..\/include/string.h"
   389                          	C_LINE	394,"C:\z88dk\lib\config\\..\..\/include/string.h"
   394                          	C_LINE	396,"C:\z88dk\lib\config\\..\..\/include/string.h"
   396                          	C_LINE	400,"C:\z88dk\lib\config\\..\..\/include/string.h"
   400                          	C_LINE	401,"C:\z88dk\lib\config\\..\..\/include/string.h"
   401                          	C_LINE	403,"C:\z88dk\lib\config\\..\..\/include/string.h"
   403                          	C_LINE	409,"C:\z88dk\lib\config\\..\..\/include/string.h"
   409                          	C_LINE	411,"C:\z88dk\lib\config\\..\..\/include/string.h"
   411                          	C_LINE	415,"C:\z88dk\lib\config\\..\..\/include/string.h"
   415                          	C_LINE	417,"C:\z88dk\lib\config\\..\..\/include/string.h"
   417                          	C_LINE	480,"C:\z88dk\lib\config\\..\..\/include/string.h"
   480                          	C_LINE	486,"C:\z88dk\lib\config\\..\..\/include/string.h"
   486                          	C_LINE	492,"C:\z88dk\lib\config\\..\..\/include/string.h"
   492                          	C_LINE	498,"C:\z88dk\lib\config\\..\..\/include/string.h"
   498                          	C_LINE	3,"main.c"
main.c:
     3                          	C_LINE	0,"C:\z88dk\lib\config\\..\..\/include/ctype.h"
C:\z88dk\lib\config\\..\..\/include/ctype.h:
                                	C_LINE	7,"C:\z88dk\lib\config\\..\..\/include/ctype.h"
     7                          	C_LINE	9,"C:\z88dk\lib\config\\..\..\/include/ctype.h"
     9                          	C_LINE	14,"C:\z88dk\lib\config\\..\..\/include/ctype.h"
    14                          	C_LINE	16,"C:\z88dk\lib\config\\..\..\/include/ctype.h"
    16                          	C_LINE	21,"C:\z88dk\lib\config\\..\..\/include/ctype.h"
    21                          	C_LINE	23,"C:\z88dk\lib\config\\..\..\/include/ctype.h"
    23                          	C_LINE	28,"C:\z88dk\lib\config\\..\..\/include/ctype.h"
    28                          	C_LINE	30,"C:\z88dk\lib\config\\..\..\/include/ctype.h"
    30                          	C_LINE	35,"C:\z88dk\lib\config\\..\..\/include/ctype.h"
    35                          	C_LINE	37,"C:\z88dk\lib\config\\..\..\/include/ctype.h"
    37                          	C_LINE	42,"C:\z88dk\lib\config\\..\..\/include/ctype.h"
    42                          	C_LINE	44,"C:\z88dk\lib\config\\..\..\/include/ctype.h"
    44                          	C_LINE	49,"C:\z88dk\lib\config\\..\..\/include/ctype.h"
    49                          	C_LINE	51,"C:\z88dk\lib\config\\..\..\/include/ctype.h"
    51                          	C_LINE	56,"C:\z88dk\lib\config\\..\..\/include/ctype.h"
    56                          	C_LINE	58,"C:\z88dk\lib\config\\..\..\/include/ctype.h"
    58                          	C_LINE	63,"C:\z88dk\lib\config\\..\..\/include/ctype.h"
    63                          	C_LINE	65,"C:\z88dk\lib\config\\..\..\/include/ctype.h"
    65                          	C_LINE	70,"C:\z88dk\lib\config\\..\..\/include/ctype.h"
    70                          	C_LINE	72,"C:\z88dk\lib\config\\..\..\/include/ctype.h"
    72                          	C_LINE	77,"C:\z88dk\lib\config\\..\..\/include/ctype.h"
    77                          	C_LINE	79,"C:\z88dk\lib\config\\..\..\/include/ctype.h"
    79                          	C_LINE	84,"C:\z88dk\lib\config\\..\..\/include/ctype.h"
    84                          	C_LINE	86,"C:\z88dk\lib\config\\..\..\/include/ctype.h"
    86                          	C_LINE	91,"C:\z88dk\lib\config\\..\..\/include/ctype.h"
    91                          	C_LINE	93,"C:\z88dk\lib\config\\..\..\/include/ctype.h"
    93                          	C_LINE	98,"C:\z88dk\lib\config\\..\..\/include/ctype.h"
    98                          	C_LINE	100,"C:\z88dk\lib\config\\..\..\/include/ctype.h"
   100                          	C_LINE	105,"C:\z88dk\lib\config\\..\..\/include/ctype.h"
   105                          	C_LINE	107,"C:\z88dk\lib\config\\..\..\/include/ctype.h"
   107                          	C_LINE	112,"C:\z88dk\lib\config\\..\..\/include/ctype.h"
   112                          	C_LINE	114,"C:\z88dk\lib\config\\..\..\/include/ctype.h"
   114                          	C_LINE	119,"C:\z88dk\lib\config\\..\..\/include/ctype.h"
   119                          	C_LINE	121,"C:\z88dk\lib\config\\..\..\/include/ctype.h"
   121                          	C_LINE	126,"C:\z88dk\lib\config\\..\..\/include/ctype.h"
   126                          	C_LINE	128,"C:\z88dk\lib\config\\..\..\/include/ctype.h"
   128                          	C_LINE	4,"main.c"
main.c:
     4                          	C_LINE	0,"C:\z88dk\lib\config\\..\..\/include/conio.h"
C:\z88dk\lib\config\\..\..\/include/conio.h:
                                	C_LINE	0,"C:\z88dk\lib\config\\..\..\/include/dos.h"
C:\z88dk\lib\config\\..\..\/include/dos.h:
                                	C_LINE	0,"C:\z88dk\lib\config\\..\..\/include/time.h"
C:\z88dk\lib\config\\..\..\/include/time.h:
                                	C_LINE	70,"C:\z88dk\lib\config\\..\..\/include/time.h"
    70                          	C_LINE	73,"C:\z88dk\lib\config\\..\..\/include/time.h"
    73                          	C_LINE	93,"C:\z88dk\lib\config\\..\..\/include/time.h"
    93                          	C_LINE	94,"C:\z88dk\lib\config\\..\..\/include/time.h"
    94                          	C_LINE	95,"C:\z88dk\lib\config\\..\..\/include/time.h"
    95                          	C_LINE	96,"C:\z88dk\lib\config\\..\..\/include/time.h"
    96                          	C_LINE	97,"C:\z88dk\lib\config\\..\..\/include/time.h"
    97                          	C_LINE	101,"C:\z88dk\lib\config\\..\..\/include/time.h"
   101                          	C_LINE	104,"C:\z88dk\lib\config\\..\..\/include/time.h"
   104                          	C_LINE	146,"C:\z88dk\lib\config\\..\..\/include/time.h"
   146                          	C_LINE	155,"C:\z88dk\lib\config\\..\..\/include/time.h"
   155                          	C_LINE	157,"C:\z88dk\lib\config\\..\..\/include/time.h"
   157                          	C_LINE	162,"C:\z88dk\lib\config\\..\..\/include/time.h"
   162                          	C_LINE	164,"C:\z88dk\lib\config\\..\..\/include/time.h"
   164                          	C_LINE	18,"C:\z88dk\lib\config\\..\..\/include/dos.h"
C:\z88dk\lib\config\\..\..\/include/dos.h:
    18                          	C_LINE	0,"C:\z88dk\lib\config\\..\..\/include/sound.h"
C:\z88dk\lib\config\\..\..\/include/sound.h:
                                	C_LINE	23,"C:\z88dk\lib\config\\..\..\/include/sound.h"
    23                          	C_LINE	24,"C:\z88dk\lib\config\\..\..\/include/sound.h"
    24                          	C_LINE	25,"C:\z88dk\lib\config\\..\..\/include/sound.h"
    25                          	C_LINE	26,"C:\z88dk\lib\config\\..\..\/include/sound.h"
    26                          	C_LINE	27,"C:\z88dk\lib\config\\..\..\/include/sound.h"
    27                          	C_LINE	30,"C:\z88dk\lib\config\\..\..\/include/sound.h"
    30                          	C_LINE	31,"C:\z88dk\lib\config\\..\..\/include/sound.h"
    31                          	C_LINE	32,"C:\z88dk\lib\config\\..\..\/include/sound.h"
    32                          	C_LINE	33,"C:\z88dk\lib\config\\..\..\/include/sound.h"
    33                          	C_LINE	34,"C:\z88dk\lib\config\\..\..\/include/sound.h"
    34                          	C_LINE	35,"C:\z88dk\lib\config\\..\..\/include/sound.h"
    35                          	C_LINE	36,"C:\z88dk\lib\config\\..\..\/include/sound.h"
    36                          	C_LINE	39,"C:\z88dk\lib\config\\..\..\/include/sound.h"
    39                          	C_LINE	42,"C:\z88dk\lib\config\\..\..\/include/sound.h"
    42                          	C_LINE	43,"C:\z88dk\lib\config\\..\..\/include/sound.h"
    43                          	C_LINE	47,"C:\z88dk\lib\config\\..\..\/include/sound.h"
    47                          	C_LINE	48,"C:\z88dk\lib\config\\..\..\/include/sound.h"
    48                          	C_LINE	52,"C:\z88dk\lib\config\\..\..\/include/sound.h"
    52                          	C_LINE	53,"C:\z88dk\lib\config\\..\..\/include/sound.h"
    53                          	C_LINE	57,"C:\z88dk\lib\config\\..\..\/include/sound.h"
    57                          	C_LINE	60,"C:\z88dk\lib\config\\..\..\/include/sound.h"
    60                          	C_LINE	63,"C:\z88dk\lib\config\\..\..\/include/sound.h"
    63                          	C_LINE	66,"C:\z88dk\lib\config\\..\..\/include/sound.h"
    66                          	C_LINE	69,"C:\z88dk\lib\config\\..\..\/include/sound.h"
    69                          	C_LINE	70,"C:\z88dk\lib\config\\..\..\/include/sound.h"
    70                          	C_LINE	71,"C:\z88dk\lib\config\\..\..\/include/sound.h"
    71                          	C_LINE	72,"C:\z88dk\lib\config\\..\..\/include/sound.h"
    72                          	C_LINE	75,"C:\z88dk\lib\config\\..\..\/include/sound.h"
    75                          	C_LINE	78,"C:\z88dk\lib\config\\..\..\/include/sound.h"
    78                          	C_LINE	108,"C:\z88dk\lib\config\\..\..\/include/sound.h"
   108                          	C_LINE	114,"C:\z88dk\lib\config\\..\..\/include/sound.h"
   114                          	C_LINE	116,"C:\z88dk\lib\config\\..\..\/include/sound.h"
   116                          	C_LINE	117,"C:\z88dk\lib\config\\..\..\/include/sound.h"
   117                          	C_LINE	121,"C:\z88dk\lib\config\\..\..\/include/sound.h"
   121                          	C_LINE	122,"C:\z88dk\lib\config\\..\..\/include/sound.h"
   122                          	C_LINE	130,"C:\z88dk\lib\config\\..\..\/include/sound.h"
   130                          	C_LINE	131,"C:\z88dk\lib\config\\..\..\/include/sound.h"
   131                          	C_LINE	142,"C:\z88dk\lib\config\\..\..\/include/sound.h"
   142                          	C_LINE	143,"C:\z88dk\lib\config\\..\..\/include/sound.h"
   143                          	C_LINE	153,"C:\z88dk\lib\config\\..\..\/include/sound.h"
   153                          	C_LINE	156,"C:\z88dk\lib\config\\..\..\/include/sound.h"
   156                          	C_LINE	160,"C:\z88dk\lib\config\\..\..\/include/sound.h"
   160                          	C_LINE	163,"C:\z88dk\lib\config\\..\..\/include/sound.h"
   163                          	C_LINE	351,"C:\z88dk\lib\config\\..\..\/include/sound.h"
   351                          	C_LINE	355,"C:\z88dk\lib\config\\..\..\/include/sound.h"
   355                          	C_LINE	356,"C:\z88dk\lib\config\\..\..\/include/sound.h"
   356                          	C_LINE	357,"C:\z88dk\lib\config\\..\..\/include/sound.h"
   357                          	C_LINE	358,"C:\z88dk\lib\config\\..\..\/include/sound.h"
   358                          	C_LINE	359,"C:\z88dk\lib\config\\..\..\/include/sound.h"
   359                          	C_LINE	360,"C:\z88dk\lib\config\\..\..\/include/sound.h"
   360                          	C_LINE	361,"C:\z88dk\lib\config\\..\..\/include/sound.h"
   361                          	C_LINE	362,"C:\z88dk\lib\config\\..\..\/include/sound.h"
   362                          	C_LINE	363,"C:\z88dk\lib\config\\..\..\/include/sound.h"
   363                          	C_LINE	364,"C:\z88dk\lib\config\\..\..\/include/sound.h"
   364                          	C_LINE	365,"C:\z88dk\lib\config\\..\..\/include/sound.h"
   365                          	C_LINE	366,"C:\z88dk\lib\config\\..\..\/include/sound.h"
   366                          	C_LINE	367,"C:\z88dk\lib\config\\..\..\/include/sound.h"
   367                          	C_LINE	368,"C:\z88dk\lib\config\\..\..\/include/sound.h"
   368                          	C_LINE	369,"C:\z88dk\lib\config\\..\..\/include/sound.h"
   369                          	C_LINE	370,"C:\z88dk\lib\config\\..\..\/include/sound.h"
   370                          	C_LINE	371,"C:\z88dk\lib\config\\..\..\/include/sound.h"
   371                          	C_LINE	372,"C:\z88dk\lib\config\\..\..\/include/sound.h"
   372                          	C_LINE	373,"C:\z88dk\lib\config\\..\..\/include/sound.h"
   373                          	C_LINE	374,"C:\z88dk\lib\config\\..\..\/include/sound.h"
   374                          	C_LINE	375,"C:\z88dk\lib\config\\..\..\/include/sound.h"
   375                          	C_LINE	376,"C:\z88dk\lib\config\\..\..\/include/sound.h"
   376                          	C_LINE	377,"C:\z88dk\lib\config\\..\..\/include/sound.h"
   377                          	C_LINE	378,"C:\z88dk\lib\config\\..\..\/include/sound.h"
   378                          	C_LINE	379,"C:\z88dk\lib\config\\..\..\/include/sound.h"
   379                          	C_LINE	380,"C:\z88dk\lib\config\\..\..\/include/sound.h"
   380                          	C_LINE	381,"C:\z88dk\lib\config\\..\..\/include/sound.h"
   381                          	C_LINE	382,"C:\z88dk\lib\config\\..\..\/include/sound.h"
   382                          	C_LINE	383,"C:\z88dk\lib\config\\..\..\/include/sound.h"
   383                          	C_LINE	384,"C:\z88dk\lib\config\\..\..\/include/sound.h"
   384                          	C_LINE	385,"C:\z88dk\lib\config\\..\..\/include/sound.h"
   385                          	C_LINE	386,"C:\z88dk\lib\config\\..\..\/include/sound.h"
   386                          	C_LINE	387,"C:\z88dk\lib\config\\..\..\/include/sound.h"
   387                          	C_LINE	388,"C:\z88dk\lib\config\\..\..\/include/sound.h"
   388                          	C_LINE	389,"C:\z88dk\lib\config\\..\..\/include/sound.h"
   389                          	C_LINE	390,"C:\z88dk\lib\config\\..\..\/include/sound.h"
   390                          	C_LINE	391,"C:\z88dk\lib\config\\..\..\/include/sound.h"
   391                          	C_LINE	392,"C:\z88dk\lib\config\\..\..\/include/sound.h"
   392                          	C_LINE	393,"C:\z88dk\lib\config\\..\..\/include/sound.h"
   393                          	C_LINE	394,"C:\z88dk\lib\config\\..\..\/include/sound.h"
   394                          	C_LINE	395,"C:\z88dk\lib\config\\..\..\/include/sound.h"
   395                          	C_LINE	396,"C:\z88dk\lib\config\\..\..\/include/sound.h"
   396                          	C_LINE	397,"C:\z88dk\lib\config\\..\..\/include/sound.h"
   397                          	C_LINE	398,"C:\z88dk\lib\config\\..\..\/include/sound.h"
   398                          	C_LINE	399,"C:\z88dk\lib\config\\..\..\/include/sound.h"
   399                          	C_LINE	400,"C:\z88dk\lib\config\\..\..\/include/sound.h"
   400                          	C_LINE	401,"C:\z88dk\lib\config\\..\..\/include/sound.h"
   401                          	C_LINE	402,"C:\z88dk\lib\config\\..\..\/include/sound.h"
   402                          	C_LINE	403,"C:\z88dk\lib\config\\..\..\/include/sound.h"
   403                          	C_LINE	404,"C:\z88dk\lib\config\\..\..\/include/sound.h"
   404                          	C_LINE	405,"C:\z88dk\lib\config\\..\..\/include/sound.h"
   405                          	C_LINE	406,"C:\z88dk\lib\config\\..\..\/include/sound.h"
   406                          	C_LINE	407,"C:\z88dk\lib\config\\..\..\/include/sound.h"
   407                          	C_LINE	408,"C:\z88dk\lib\config\\..\..\/include/sound.h"
   408                          	C_LINE	409,"C:\z88dk\lib\config\\..\..\/include/sound.h"
   409                          	C_LINE	410,"C:\z88dk\lib\config\\..\..\/include/sound.h"
   410                          	C_LINE	411,"C:\z88dk\lib\config\\..\..\/include/sound.h"
   411                          	C_LINE	412,"C:\z88dk\lib\config\\..\..\/include/sound.h"
   412                          	C_LINE	19,"C:\z88dk\lib\config\\..\..\/include/dos.h"
C:\z88dk\lib\config\\..\..\/include/dos.h:
    19                          	C_LINE	21,"C:\z88dk\lib\config\\..\..\/include/dos.h"
    21                          	C_LINE	27,"C:\z88dk\lib\config\\..\..\/include/dos.h"
    27                          	C_LINE	23,"C:\z88dk\lib\config\\..\..\/include/conio.h"
C:\z88dk\lib\config\\..\..\/include/conio.h:
    23                          	C_LINE	0,"C:\z88dk\lib\config\\..\..\/include/X11/Xz88dk.h"
C:\z88dk\lib\config\\..\..\/include/X11/Xz88dk.h:
                                	C_LINE	0,"C:\z88dk\lib\config\\..\..\/include/X11/Xlib.h"
C:\z88dk\lib\config\\..\..\/include/X11/Xlib.h:
                                	C_LINE	0,"C:\z88dk\lib\config\\..\..\/include/games.h"
C:\z88dk\lib\config\\..\..\/include/games.h:
                                	C_LINE	22,"C:\z88dk\lib\config\\..\..\/include/games.h"
    22                          	C_LINE	24,"C:\z88dk\lib\config\\..\..\/include/games.h"
    24                          	C_LINE	26,"C:\z88dk\lib\config\\..\..\/include/games.h"
    26                          	C_LINE	31,"C:\z88dk\lib\config\\..\..\/include/games.h"
    31                          	C_LINE	34,"C:\z88dk\lib\config\\..\..\/include/games.h"
    34                          	C_LINE	36,"C:\z88dk\lib\config\\..\..\/include/games.h"
    36                          	C_LINE	52,"C:\z88dk\lib\config\\..\..\/include/games.h"
    52                          	C_LINE	57,"C:\z88dk\lib\config\\..\..\/include/games.h"
    57                          	C_LINE	59,"C:\z88dk\lib\config\\..\..\/include/games.h"
    59                          	C_LINE	72,"C:\z88dk\lib\config\\..\..\/include/games.h"
    72                          	C_LINE	57,"C:\z88dk\lib\config\\..\..\/include/X11/Xlib.h"
C:\z88dk\lib\config\\..\..\/include/X11/Xlib.h:
    57                          	C_LINE	0,"C:\z88dk\lib\config\\..\..\/include/X11/X.h"
C:\z88dk\lib\config\\..\..\/include/X11/X.h:
                                	C_LINE	63,"C:\z88dk\lib\config\\..\..\/include/X11/X.h"
    63                          	C_LINE	66,"C:\z88dk\lib\config\\..\..\/include/X11/X.h"
    66                          	C_LINE	69,"C:\z88dk\lib\config\\..\..\/include/X11/X.h"
    69                          	C_LINE	71,"C:\z88dk\lib\config\\..\..\/include/X11/X.h"
    71                          	C_LINE	72,"C:\z88dk\lib\config\\..\..\/include/X11/X.h"
    72                          	C_LINE	73,"C:\z88dk\lib\config\\..\..\/include/X11/X.h"
    73                          	C_LINE	74,"C:\z88dk\lib\config\\..\..\/include/X11/X.h"
    74                          	C_LINE	75,"C:\z88dk\lib\config\\..\..\/include/X11/X.h"
    75                          	C_LINE	76,"C:\z88dk\lib\config\\..\..\/include/X11/X.h"
    76                          	C_LINE	77,"C:\z88dk\lib\config\\..\..\/include/X11/X.h"
    77                          	C_LINE	78,"C:\z88dk\lib\config\\..\..\/include/X11/X.h"
    78                          	C_LINE	80,"C:\z88dk\lib\config\\..\..\/include/X11/X.h"
    80                          	C_LINE	77,"C:\z88dk\lib\config\\..\..\/include/X11/Xlib.h"
C:\z88dk\lib\config\\..\..\/include/X11/Xlib.h:
    77                          	C_LINE	82,"C:\z88dk\lib\config\\..\..\/include/X11/Xlib.h"
    82                          	C_LINE	112,"C:\z88dk\lib\config\\..\..\/include/X11/Xlib.h"
   112                          	C_LINE	119,"C:\z88dk\lib\config\\..\..\/include/X11/Xlib.h"
   119                          	C_LINE	149,"C:\z88dk\lib\config\\..\..\/include/X11/Xlib.h"
   149                          	C_LINE	159,"C:\z88dk\lib\config\\..\..\/include/X11/Xlib.h"
   159                          	C_LINE	167,"C:\z88dk\lib\config\\..\..\/include/X11/Xlib.h"
   167                          	C_LINE	177,"C:\z88dk\lib\config\\..\..\/include/X11/Xlib.h"
   177                          	C_LINE	205,"C:\z88dk\lib\config\\..\..\/include/X11/Xlib.h"
   205                          	C_LINE	210,"C:\z88dk\lib\config\\..\..\/include/X11/Xlib.h"
   210                          	C_LINE	225,"C:\z88dk\lib\config\\..\..\/include/X11/Xlib.h"
   225                          	C_LINE	226,"C:\z88dk\lib\config\\..\..\/include/X11/Xlib.h"
   226                          	C_LINE	228,"C:\z88dk\lib\config\\..\..\/include/X11/Xlib.h"
   228                          	C_LINE	243,"C:\z88dk\lib\config\\..\..\/include/X11/Xlib.h"
   243                          	C_LINE	244,"C:\z88dk\lib\config\\..\..\/include/X11/Xlib.h"
   244                          	C_LINE	246,"C:\z88dk\lib\config\\..\..\/include/X11/Xlib.h"
   246                          	C_LINE	261,"C:\z88dk\lib\config\\..\..\/include/X11/Xlib.h"
   261                          	C_LINE	263,"C:\z88dk\lib\config\\..\..\/include/X11/Xlib.h"
   263                          	C_LINE	284,"C:\z88dk\lib\config\\..\..\/include/X11/Xlib.h"
   284                          	C_LINE	285,"C:\z88dk\lib\config\\..\..\/include/X11/Xlib.h"
   285                          	C_LINE	287,"C:\z88dk\lib\config\\..\..\/include/X11/Xlib.h"
   287                          	C_LINE	301,"C:\z88dk\lib\config\\..\..\/include/X11/Xlib.h"
   301                          	C_LINE	302,"C:\z88dk\lib\config\\..\..\/include/X11/Xlib.h"
   302                          	C_LINE	305,"C:\z88dk\lib\config\\..\..\/include/X11/Xlib.h"
   305                          	C_LINE	314,"C:\z88dk\lib\config\\..\..\/include/X11/Xlib.h"
   314                          	C_LINE	325,"C:\z88dk\lib\config\\..\..\/include/X11/Xlib.h"
   325                          	C_LINE	338,"C:\z88dk\lib\config\\..\..\/include/X11/Xlib.h"
   338                          	C_LINE	348,"C:\z88dk\lib\config\\..\..\/include/X11/Xlib.h"
   348                          	C_LINE	357,"C:\z88dk\lib\config\\..\..\/include/X11/Xlib.h"
   357                          	C_LINE	370,"C:\z88dk\lib\config\\..\..\/include/X11/Xlib.h"
   370                          	C_LINE	379,"C:\z88dk\lib\config\\..\..\/include/X11/Xlib.h"
   379                          	C_LINE	389,"C:\z88dk\lib\config\\..\..\/include/X11/Xlib.h"
   389                          	C_LINE	399,"C:\z88dk\lib\config\\..\..\/include/X11/Xlib.h"
   399                          	C_LINE	408,"C:\z88dk\lib\config\\..\..\/include/X11/Xlib.h"
   408                          	C_LINE	420,"C:\z88dk\lib\config\\..\..\/include/X11/Xlib.h"
   420                          	C_LINE	434,"C:\z88dk\lib\config\\..\..\/include/X11/Xlib.h"
   434                          	C_LINE	444,"C:\z88dk\lib\config\\..\..\/include/X11/Xlib.h"
   444                          	C_LINE	453,"C:\z88dk\lib\config\\..\..\/include/X11/Xlib.h"
   453                          	C_LINE	468,"C:\z88dk\lib\config\\..\..\/include/X11/Xlib.h"
   468                          	C_LINE	478,"C:\z88dk\lib\config\\..\..\/include/X11/Xlib.h"
   478                          	C_LINE	488,"C:\z88dk\lib\config\\..\..\/include/X11/Xlib.h"
   488                          	C_LINE	499,"C:\z88dk\lib\config\\..\..\/include/X11/Xlib.h"
   499                          	C_LINE	509,"C:\z88dk\lib\config\\..\..\/include/X11/Xlib.h"
   509                          	C_LINE	522,"C:\z88dk\lib\config\\..\..\/include/X11/Xlib.h"
   522                          	C_LINE	534,"C:\z88dk\lib\config\\..\..\/include/X11/Xlib.h"
   534                          	C_LINE	546,"C:\z88dk\lib\config\\..\..\/include/X11/Xlib.h"
   546                          	C_LINE	561,"C:\z88dk\lib\config\\..\..\/include/X11/Xlib.h"
   561                          	C_LINE	573,"C:\z88dk\lib\config\\..\..\/include/X11/Xlib.h"
   573                          	C_LINE	583,"C:\z88dk\lib\config\\..\..\/include/X11/Xlib.h"
   583                          	C_LINE	595,"C:\z88dk\lib\config\\..\..\/include/X11/Xlib.h"
   595                          	C_LINE	632,"C:\z88dk\lib\config\\..\..\/include/X11/Xlib.h"
   632                          	C_LINE	657,"C:\z88dk\lib\config\\..\..\/include/X11/Xlib.h"
   657                          	C_LINE	0,"C:\z88dk\lib\config\\..\..\/include/X11/Xz88dk.h"
C:\z88dk\lib\config\\..\..\/include/X11/Xz88dk.h:
                                	C_LINE	691,"C:\z88dk\lib\config\\..\..\/include/X11/Xlib.h"
C:\z88dk\lib\config\\..\..\/include/X11/Xlib.h:
   691                          	C_LINE	7,"C:\z88dk\lib\config\\..\..\/include/X11/Xz88dk.h"
C:\z88dk\lib\config\\..\..\/include/X11/Xz88dk.h:
     7                          	C_LINE	15,"C:\z88dk\lib\config\\..\..\/include/X11/Xz88dk.h"
    15                          	C_LINE	16,"C:\z88dk\lib\config\\..\..\/include/X11/Xz88dk.h"
    16                          	C_LINE	17,"C:\z88dk\lib\config\\..\..\/include/X11/Xz88dk.h"
    17                          	C_LINE	18,"C:\z88dk\lib\config\\..\..\/include/X11/Xz88dk.h"
    18                          	C_LINE	19,"C:\z88dk\lib\config\\..\..\/include/X11/Xz88dk.h"
    19                          	C_LINE	20,"C:\z88dk\lib\config\\..\..\/include/X11/Xz88dk.h"
    20                          	C_LINE	21,"C:\z88dk\lib\config\\..\..\/include/X11/Xz88dk.h"
    21                          	C_LINE	23,"C:\z88dk\lib\config\\..\..\/include/X11/Xz88dk.h"
    23                          	C_LINE	28,"C:\z88dk\lib\config\\..\..\/include/X11/Xz88dk.h"
    28                          	C_LINE	29,"C:\z88dk\lib\config\\..\..\/include/X11/Xz88dk.h"
    29                          	C_LINE	31,"C:\z88dk\lib\config\\..\..\/include/X11/Xz88dk.h"
    31                          	C_LINE	33,"C:\z88dk\lib\config\\..\..\/include/X11/Xz88dk.h"
    33                          	C_LINE	35,"C:\z88dk\lib\config\\..\..\/include/X11/Xz88dk.h"
    35                          	C_LINE	36,"C:\z88dk\lib\config\\..\..\/include/X11/Xz88dk.h"
    36                          	C_LINE	38,"C:\z88dk\lib\config\\..\..\/include/X11/Xz88dk.h"
    38                          	C_LINE	39,"C:\z88dk\lib\config\\..\..\/include/X11/Xz88dk.h"
    39                          	C_LINE	42,"C:\z88dk\lib\config\\..\..\/include/X11/Xz88dk.h"
    42                          	C_LINE	43,"C:\z88dk\lib\config\\..\..\/include/X11/Xz88dk.h"
    43                          	C_LINE	44,"C:\z88dk\lib\config\\..\..\/include/X11/Xz88dk.h"
    44                          	C_LINE	45,"C:\z88dk\lib\config\\..\..\/include/X11/Xz88dk.h"
    45                          	C_LINE	46,"C:\z88dk\lib\config\\..\..\/include/X11/Xz88dk.h"
    46                          	C_LINE	47,"C:\z88dk\lib\config\\..\..\/include/X11/Xz88dk.h"
    47                          	C_LINE	49,"C:\z88dk\lib\config\\..\..\/include/X11/Xz88dk.h"
    49                          	C_LINE	51,"C:\z88dk\lib\config\\..\..\/include/X11/Xz88dk.h"
    51                          	C_LINE	52,"C:\z88dk\lib\config\\..\..\/include/X11/Xz88dk.h"
    52                          	C_LINE	53,"C:\z88dk\lib\config\\..\..\/include/X11/Xz88dk.h"
    53                          	C_LINE	54,"C:\z88dk\lib\config\\..\..\/include/X11/Xz88dk.h"
    54                          	C_LINE	59,"C:\z88dk\lib\config\\..\..\/include/X11/Xz88dk.h"
    59                          	C_LINE	60,"C:\z88dk\lib\config\\..\..\/include/X11/Xz88dk.h"
    60                          	C_LINE	61,"C:\z88dk\lib\config\\..\..\/include/X11/Xz88dk.h"
    61                          	C_LINE	62,"C:\z88dk\lib\config\\..\..\/include/X11/Xz88dk.h"
    62                          	C_LINE	63,"C:\z88dk\lib\config\\..\..\/include/X11/Xz88dk.h"
    63                          	C_LINE	68,"C:\z88dk\lib\config\\..\..\/include/X11/Xz88dk.h"
    68                          	C_LINE	69,"C:\z88dk\lib\config\\..\..\/include/X11/Xz88dk.h"
    69                          	C_LINE	70,"C:\z88dk\lib\config\\..\..\/include/X11/Xz88dk.h"
    70                          	C_LINE	72,"C:\z88dk\lib\config\\..\..\/include/X11/Xz88dk.h"
    72                          	C_LINE	73,"C:\z88dk\lib\config\\..\..\/include/X11/Xz88dk.h"
    73                          	C_LINE	78,"C:\z88dk\lib\config\\..\..\/include/X11/Xz88dk.h"
    78                          	C_LINE	85,"C:\z88dk\lib\config\\..\..\/include/X11/Xz88dk.h"
    85                          	C_LINE	86,"C:\z88dk\lib\config\\..\..\/include/X11/Xz88dk.h"
    86                          	C_LINE	87,"C:\z88dk\lib\config\\..\..\/include/X11/Xz88dk.h"
    87                          	C_LINE	88,"C:\z88dk\lib\config\\..\..\/include/X11/Xz88dk.h"
    88                          	C_LINE	93,"C:\z88dk\lib\config\\..\..\/include/X11/Xz88dk.h"
    93                          	C_LINE	94,"C:\z88dk\lib\config\\..\..\/include/X11/Xz88dk.h"
    94                          	C_LINE	100,"C:\z88dk\lib\config\\..\..\/include/X11/Xz88dk.h"
   100                          	C_LINE	24,"C:\z88dk\lib\config\\..\..\/include/conio.h"
C:\z88dk\lib\config\\..\..\/include/conio.h:
    24                          	C_LINE	28,"C:\z88dk\lib\config\\..\..\/include/conio.h"
    28                          	C_LINE	83,"C:\z88dk\lib\config\\..\..\/include/conio.h"
    83                          	C_LINE	84,"C:\z88dk\lib\config\\..\..\/include/conio.h"
    84                          	C_LINE	85,"C:\z88dk\lib\config\\..\..\/include/conio.h"
    85                          	C_LINE	91,"C:\z88dk\lib\config\\..\..\/include/conio.h"
    91                          	C_LINE	92,"C:\z88dk\lib\config\\..\..\/include/conio.h"
    92                          	C_LINE	93,"C:\z88dk\lib\config\\..\..\/include/conio.h"
    93                          	C_LINE	95,"C:\z88dk\lib\config\\..\..\/include/conio.h"
    95                          	C_LINE	99,"C:\z88dk\lib\config\\..\..\/include/conio.h"
    99                          	C_LINE	101,"C:\z88dk\lib\config\\..\..\/include/conio.h"
   101                          	C_LINE	109,"C:\z88dk\lib\config\\..\..\/include/conio.h"
   109                          	C_LINE	111,"C:\z88dk\lib\config\\..\..\/include/conio.h"
   111                          	C_LINE	113,"C:\z88dk\lib\config\\..\..\/include/conio.h"
   113                          	C_LINE	132,"C:\z88dk\lib\config\\..\..\/include/conio.h"
   132                          	C_LINE	133,"C:\z88dk\lib\config\\..\..\/include/conio.h"
   133                          	C_LINE	136,"C:\z88dk\lib\config\\..\..\/include/conio.h"
   136                          	C_LINE	140,"C:\z88dk\lib\config\\..\..\/include/conio.h"
   140                          	C_LINE	143,"C:\z88dk\lib\config\\..\..\/include/conio.h"
   143                          	C_LINE	144,"C:\z88dk\lib\config\\..\..\/include/conio.h"
   144                          	C_LINE	5,"main.c"
main.c:
     5                          	C_LINE	8,"main.c"
     8                          	C_LINE	18,"main.c"
    18                          	C_LINE	19,"main.c"
    19                          	C_LINE	20,"main.c"
    20                          	C_LINE	21,"main.c"
    21                          	C_LINE	22,"main.c"
    22                          	C_LINE	23,"main.c"
    23                          	C_LINE	26,"main.c"
    26                          	SECTION	code_compiler
    26                          
    26                          ; Function play flags 0x00000200 __smallc
    26                          ; void play(struct AVDGame * game)
    26                          ; parameter 'struct AVDGame * game' at sp+2 size(2)
    26                          	C_LINE	26,"main.c::play::0::0"
main.c::play::0::0:
    26                          ._play
    26  0000  c5                	push	bc
    26  0001  c5                	push	bc
    26  0002  c5                	push	bc
    26  0003  c5                	push	bc
    26  0004  c5                	push	bc
    26  0005  210000            	ld	hl,i_1+0
    26  0008  e5                	push	hl
    26  0009  3e00              	ld	a,1
    26  000b  cd0000            	call	printf
    26  000e  c1                	pop	bc
    26  000f  210000            	ld	hl,i_1+29
    26  0012  e5                	push	hl
    26  0013  3e00              	ld	a,1
    26  0015  cd0000            	call	printf
    26  0018  c1                	pop	bc
    26  0019  210000            	ld	hl,0	;const
    26  001c  39                	add	hl,sp
    26  001d  e5                	push	hl
    26  001e  210000            	ld	hl,10	;const
    26  0021  e5                	push	hl
    26  0022  210000            	ld	hl,__sgoioblk
    26  0025  e5                	push	hl
    26  0026  cd0000            	call	fgets
    26  0029  c1                	pop	bc
    26  002a  c1                	pop	bc
    26  002b  c1                	pop	bc
    26  002c  210000            	ld	hl,0	;const
    26  002f  39                	add	hl,sp
    26  0030  e5                	push	hl
    26  0031  cd0000            	call	_strip_newline
    26  0034  c1                	pop	bc
    26  0035  210000            	ld	hl,0	;const
    26  0038  39                	add	hl,sp
    26  0039  cd0000            	call	l_gchar
    26  003c  cd0000            	call	_toupper_fastcall
    26  003f  110000            	ld	de,89
    26  0042  a7                	and	a
    26  0043  ed52              	sbc	hl,de
    26  0045  cc0000            	call	z,_show_instructions
    26                          .i_3
    26  0048  210000            	ld	hl,12	;const
    26  004b  39                	add	hl,sp
    26  004c  cd0000            	call	l_gint	;
    26  004f  e5                	push	hl
    26  0050  cd0000            	call	_is_full
    26  0053  c1                	pop	bc
    26  0054  cd0000            	call	l_lneg
    26  0057  d20000            	jp	nc,i_4	;
    26  005a  210000            	ld	hl,12	;const
    26  005d  39                	add	hl,sp
    26  005e  cd0000            	call	l_gint	;
    26  0061  e5                	push	hl
    26  0062  cd0000            	call	_display_board
    26  0065  c1                	pop	bc
    26  0066  210000            	ld	hl,i_1+77
    26  0069  e5                	push	hl
    26  006a  210000            	ld	hl,14	;const
    26  006d  39                	add	hl,sp
    26  006e  cd0000            	call	l_gint	;
    26  0071  e5                	push	hl
    26  0072  3e00              	ld	a,2
    26  0074  cd0000            	call	printf
    26  0077  c1                	pop	bc
    26  0078  c1                	pop	bc
    26  0079  210000            	ld	hl,12	;const
    26  007c  39                	add	hl,sp
    26  007d  5e                	ld	e,(hl)
    26  007e  23                	inc	hl
    26  007f  56                	ld	d,(hl)
    26  0080  d5                	push	de
    26  0081  210000            	ld	hl,i_1+103
    26  0084  e5                	push	hl
    26  0085  cd0000            	call	strcmp_callee
    26  0088  7c                	ld	a,h
    26  0089  b5                	or	l
    26  008a  2000              	jr	nz,ASMPC+3
    26  008c  37                	scf
    26  008d  d20000            	jp	nc,i_5	;
    26  0090  210000            	ld	hl,12	;const
    26  0093  39                	add	hl,sp
    26  0094  4e                	ld	c,(hl)
    26  0095  23                	inc	hl
    26  0096  46                	ld	b,(hl)
    26  0097  210000            	ld	hl,6
    26  009a  09                	add	hl,bc
    26  009b  c30000            	jp	i_6	;
    26                          .i_5
    26  009e  210000            	ld	hl,12	;const
    26  00a1  39                	add	hl,sp
    26  00a2  4e                	ld	c,(hl)
    26  00a3  23                	inc	hl
    26  00a4  46                	ld	b,(hl)
    26  00a5  210000            	ld	hl,16
    26  00a8  09                	add	hl,bc
    26                          .i_6
    26  00a9  e5                	push	hl
    26  00aa  210000            	ld	hl,14	;const
    26  00ad  39                	add	hl,sp
    26  00ae  5e                	ld	e,(hl)
    26  00af  23                	inc	hl
    26  00b0  56                	ld	d,(hl)
    26  00b1  d5                	push	de
    26  00b2  210000            	ld	hl,i_1+103
    26  00b5  e5                	push	hl
    26  00b6  cd0000            	call	strcmp_callee
    26  00b9  7c                	ld	a,h
    26  00ba  b5                	or	l
    26  00bb  2000              	jr	nz,ASMPC+3
    26  00bd  37                	scf
    26  00be  d20000            	jp	nc,i_7	;
    26  00c1  210000            	ld	hl,14	;const
    26  00c4  39                	add	hl,sp
    26  00c5  4e                	ld	c,(hl)
    26  00c6  23                	inc	hl
    26  00c7  46                	ld	b,(hl)
    26  00c8  210000            	ld	hl,26
    26  00cb  09                	add	hl,bc
    26  00cc  cd0000            	call	l_gint	;
    26  00cf  c30000            	jp	i_8	;
    26                          .i_7
    26  00d2  210000            	ld	hl,14	;const
    26  00d5  39                	add	hl,sp
    26  00d6  4e                	ld	c,(hl)
    26  00d7  23                	inc	hl
    26  00d8  46                	ld	b,(hl)
    26  00d9  210000            	ld	hl,28
    26  00dc  09                	add	hl,bc
    26  00dd  cd0000            	call	l_gint	;
    26                          .i_8
    26  00e0  e5                	push	hl
    26  00e1  210000            	ld	hl,0	;const
    26  00e4  e5                	push	hl
    26  00e5  c30000            	jp	i_11	;EOS
    26                          .i_9
    26  00e8  e1                	pop	hl
    26  00e9  23                	inc	hl
    26  00ea  e5                	push	hl
    26                          .i_11
    26  00eb  210000            	ld	hl,0	;const
    26  00ee  cd0000            	call	l_gintspsp	;
    26  00f1  cd0000            	call	l_gint4sp	;
    26  00f4  d1                	pop	de
    26  00f5  cd0000            	call	l_lt
    26  00f8  d20000            	jp	nc,i_10	;
    26  00fb  210000            	ld	hl,i_1+109
    26  00fe  e5                	push	hl
    26  00ff  210000            	ld	hl,6	;const
    26  0102  cd0000            	call	l_gintspsp	;
    26  0105  cd0000            	call	l_gint4sp	;
    26  0108  d1                	pop	de
    26  0109  19                	add	hl,de
    26  010a  cd0000            	call	l_gchar
    26  010d  e5                	push	hl
    26  010e  3e00              	ld	a,2
    26  0110  cd0000            	call	printf
    26  0113  c1                	pop	bc
    26  0114  c1                	pop	bc
    26  0115  c30000            	jp	i_9	;EOS
    26                          .i_10
    26  0118  c1                	pop	bc
    26  0119  210000            	ld	hl,i_1+27
    26  011c  e5                	push	hl
    26  011d  3e00              	ld	a,1
    26  011f  cd0000            	call	printf
    26  0122  c1                	pop	bc
    26  0123  210000            	ld	hl,i_1+113
    26  0126  e5                	push	hl
    26  0127  3e00              	ld	a,1
    26  0129  cd0000            	call	printf
    26  012c  c1                	pop	bc
    26  012d  210000            	ld	hl,4	;const
    26  0130  39                	add	hl,sp
    26  0131  e5                	push	hl
    26  0132  210000            	ld	hl,10	;const
    26  0135  e5                	push	hl
    26  0136  210000            	ld	hl,__sgoioblk
    26  0139  e5                	push	hl
    26  013a  cd0000            	call	fgets
    26  013d  c1                	pop	bc
    26  013e  c1                	pop	bc
    26  013f  c1                	pop	bc
    26  0140  210000            	ld	hl,4	;const
    26  0143  39                	add	hl,sp
    26  0144  e5                	push	hl
    26  0145  cd0000            	call	_strip_newline
    26  0148  c1                	pop	bc
    26  0149  210000            	ld	hl,4	;const
    26  014c  39                	add	hl,sp
    26  014d  cd0000            	call	atoi_fastcall
    26  0150  e5                	push	hl
    26  0151  7c                	ld	a,h
    26  0152  b5                	or	l
    26  0153  2000              	jr	nz,ASMPC+3
    26  0155  37                	scf
    26  0156  d20000            	jp	nc,i_12	;
    26  0159  210000            	ld	hl,i_1+149
    26  015c  e5                	push	hl
    26  015d  3e00              	ld	a,1
    26  015f  cd0000            	call	printf
    26  0162  c1                	pop	bc
    26  0163  210000            	ld	hl,i_1+192
    26  0166  e5                	push	hl
    26  0167  3e00              	ld	a,1
    26  0169  cd0000            	call	printf
    26  016c  210000            	ld	hl,1500	;const
    26  016f  e3                	ex	(sp),hl
    26  0170  cd0000            	call	_z80_delay_ms
    26  0173  c1                	pop	bc
    26  0174  d9                	exx
    26  0175  210000            	ld	hl,16	;const
    26  0178  39                	add	hl,sp
    26  0179  f9                	ld	sp,hl
    26  017a  d9                	exx
    26  017b  c9                	ret
    26                          
    26                          
    26                          .i_12
    26  017c  210000            	ld	hl,i_1+260
    26  017f  e5                	push	hl
    26  0180  3e00              	ld	a,1
    26  0182  cd0000            	call	printf
    26  0185  c1                	pop	bc
    26  0186  210000            	ld	hl,6	;const
    26  0189  39                	add	hl,sp
    26  018a  e5                	push	hl
    26  018b  210000            	ld	hl,10	;const
    26  018e  e5                	push	hl
    26  018f  210000            	ld	hl,__sgoioblk
    26  0192  e5                	push	hl
    26  0193  cd0000            	call	fgets
    26  0196  c1                	pop	bc
    26  0197  c1                	pop	bc
    26  0198  c1                	pop	bc
    26  0199  210000            	ld	hl,6	;const
    26  019c  39                	add	hl,sp
    26  019d  e5                	push	hl
    26  019e  cd0000            	call	_strip_newline
    26  01a1  c1                	pop	bc
    26  01a2  210000            	ld	hl,6	;const
    26  01a5  39                	add	hl,sp
    26  01a6  cd0000            	call	l_gchar
    26  01a9  cd0000            	call	_toupper_fastcall
    26  01ac  7d                	ld	a,l
    26  01ad  cd0000            	call	l_sxt
    26  01b0  3b                	dec	sp
    26  01b1  7d                	ld	a,l
    26  01b2  e1                	pop	hl
    26  01b3  6f                	ld	l,a
    26  01b4  e5                	push	hl
    26  01b5  210000            	ld	hl,0	;const
    26  01b8  39                	add	hl,sp
    26  01b9  7e                	ld	a,(hl)
    26  01ba  fe00              	cp	48
    26  01bc  c20000            	jp	nz,i_13	;
    26  01bf  210000            	ld	hl,i_1+149
    26  01c2  e5                	push	hl
    26  01c3  3e00              	ld	a,1
    26  01c5  cd0000            	call	printf
    26  01c8  c1                	pop	bc
    26  01c9  210000            	ld	hl,i_1+192
    26  01cc  e5                	push	hl
    26  01cd  3e00              	ld	a,1
    26  01cf  cd0000            	call	printf
    26  01d2  210000            	ld	hl,1500	;const
    26  01d5  e3                	ex	(sp),hl
    26  01d6  cd0000            	call	_z80_delay_ms
    26  01d9  c1                	pop	bc
    26  01da  d9                	exx
    26  01db  210000            	ld	hl,17	;const
    26  01de  39                	add	hl,sp
    26  01df  f9                	ld	sp,hl
    26  01e0  d9                	exx
    26  01e1  c9                	ret
    26                          
    26                          
    26                          .i_13
    26  01e2  210000            	ld	hl,19	;const
    26  01e5  cd0000            	call	l_gintspsp	;
    26  01e8  210000            	ld	hl,3	;const
    26  01eb  cd0000            	call	l_gintspsp	;
    26  01ee  210000            	ld	hl,4	;const
    26  01f1  39                	add	hl,sp
    26  01f2  cd0000            	call	l_gchar
    26  01f5  e5                	push	hl
    26  01f6  cd0000            	call	_make_move
    26  01f9  c1                	pop	bc
    26  01fa  c1                	pop	bc
    26  01fb  c1                	pop	bc
    26  01fc  cd0000            	call	l_lneg
    26  01ff  d20000            	jp	nc,i_14	;
    26  0202  210000            	ld	hl,i_1+274
    26  0205  e5                	push	hl
    26  0206  3e00              	ld	a,1
    26  0208  cd0000            	call	printf
    26  020b  c1                	pop	bc
    26  020c  33                	inc	sp
    26  020d  c1                	pop	bc
    26  020e  c1                	pop	bc
    26  020f  c1                	pop	bc
    26  0210  c30000            	jp	i_3	;EOS
    26                          .i_14
    26  0213  210000            	ld	hl,19	;const
    26  0216  39                	add	hl,sp
    26  0217  cd0000            	call	l_gint	;
    26  021a  e5                	push	hl
    26  021b  cd0000            	call	_check_win
    26  021e  c1                	pop	bc
    26  021f  e5                	push	hl
    26  0220  cd0000            	call	l_gint	;
    26  0223  7c                	ld	a,h
    26  0224  b5                	or	l
    26  0225  ca0000            	jp	z,i_15	;
    26  0228  210000            	ld	hl,21	;const
    26  022b  39                	add	hl,sp
    26  022c  cd0000            	call	l_gint	;
    26  022f  e5                	push	hl
    26  0230  cd0000            	call	_display_board
    26  0233  c1                	pop	bc
    26  0234  210000            	ld	hl,i_1+300
    26  0237  d1                	pop	de
    26  0238  d5                	push	de
    26  0239  e5                	push	hl
    26  023a  eb                	ex	de,hl
    26  023b  cd0000            	call	l_gint2	;
    26  023e  7c                	ld	a,h
    26  023f  b5                	or	l
    26  0240  ca0000            	jp	z,i_18	;
    26  0243  210000            	ld	hl,i_1+350
    26  0246  c30000            	jp	i_19	;
    26                          .i_18
    26  0249  210000            	ld	hl,i_1+103
    26                          .i_19
    26  024c  e5                	push	hl
    26  024d  cd0000            	call	l_gint4sp	;
    26  0250  cd0000            	call	l_gint4	;
    26  0253  23                	inc	hl
    26  0254  e5                	push	hl
    26  0255  cd0000            	call	l_gint6sp	;
    26  0258  cd0000            	call	l_gint6	;
    26  025b  23                	inc	hl
    26  025c  e5                	push	hl
    26  025d  cd0000            	call	l_gint8sp	;
    26  0260  cd0000            	call	l_gint8	;
    26  0263  23                	inc	hl
    26  0264  e5                	push	hl
    26  0265  3e00              	ld	a,5
    26  0267  cd0000            	call	printf
    26  026a  c1                	pop	bc
    26  026b  c1                	pop	bc
    26  026c  c1                	pop	bc
    26  026d  c1                	pop	bc
    26  026e  c1                	pop	bc
    26  026f  210000            	ld	hl,i_1+192
    26  0272  e5                	push	hl
    26  0273  3e00              	ld	a,1
    26  0275  cd0000            	call	printf
    26  0278  c1                	pop	bc
    26  0279  d9                	exx
    26  027a  210000            	ld	hl,19	;const
    26  027d  39                	add	hl,sp
    26  027e  f9                	ld	sp,hl
    26  027f  d9                	exx
    26  0280  c9                	ret
    26                          
    26                          
    26                          .i_15
    26  0281  210000            	ld	hl,21	;const
    26  0284  39                	add	hl,sp
    26  0285  cd0000            	call	l_gint	;
    26  0288  e5                	push	hl
    26  0289  e5                	push	hl
    26  028a  210000            	ld	hl,i_1+103
    26  028d  e5                	push	hl
    26  028e  cd0000            	call	strcmp_callee
    26  0291  7c                	ld	a,h
    26  0292  b5                	or	l
    26  0293  2000              	jr	nz,ASMPC+3
    26  0295  37                	scf
    26  0296  d20000            	jp	nc,i_22	;
    26  0299  210000            	ld	hl,i_1+350
    26  029c  c30000            	jp	i_23	;
    26                          .i_22
    26  029f  210000            	ld	hl,i_1+103
    26                          .i_23
    26  02a2  d1                	pop	de
    26  02a3  d5                	push	de
    26  02a4  af                	xor	a
    26                          .i_24
    26  02a5  be                	cp	(hl)
    26  02a6  eda0              	ldi
    26  02a8  2000              	jr	nz,i_24
    26  02aa  e1                	pop	hl
    26  02ab  33                	inc	sp
    26  02ac  c1                	pop	bc
    26  02ad  c1                	pop	bc
    26  02ae  c1                	pop	bc
    26  02af  c1                	pop	bc
    26  02b0  c30000            	jp	i_3	;EOS
    26                          .i_4
    26  02b3  210000            	ld	hl,12	;const
    26  02b6  39                	add	hl,sp
    26  02b7  cd0000            	call	l_gint	;
    26  02ba  e5                	push	hl
    26  02bb  cd0000            	call	_display_board
    26  02be  c1                	pop	bc
    26  02bf  210000            	ld	hl,i_1+357
    26  02c2  e5                	push	hl
    26  02c3  3e00              	ld	a,1
    26  02c5  cd0000            	call	printf
    26  02c8  c1                	pop	bc
    26  02c9  210000            	ld	hl,i_1+192
    26  02cc  e5                	push	hl
    26  02cd  3e00              	ld	a,1
    26  02cf  cd0000            	call	printf
    26  02d2  210000            	ld	hl,1500	;const
    26  02d5  e3                	ex	(sp),hl
    26  02d6  cd0000            	call	_z80_delay_ms
    26  02d9  c1                	pop	bc
    26  02da  c1                	pop	bc
    26  02db  c1                	pop	bc
    26  02dc  c1                	pop	bc
    26  02dd  c1                	pop	bc
    26  02de  c1                	pop	bc
    26  02df  c9                	ret
    26                          
    26                          
    26                          	C_LINE	101,"main.c::play::0::8"
main.c::play::0::8:
   101                          
   101                          ; Function is_full flags 0x00000200 __smallc
   101                          ; int is_full(struct AVDGame * game)
   101                          ; parameter 'struct AVDGame * game' at sp+2 size(2)
   101                          	C_LINE	101,"main.c::is_full::0::8"
main.c::is_full::0::8:
   101                          ._is_full
   101  02e0  210000            	ld	hl,0	;const
   101  02e3  e5                	push	hl
   101  02e4  c30000            	jp	i_27	;EOS
   101                          .i_25
   101  02e7  e1                	pop	hl
   101  02e8  23                	inc	hl
   101  02e9  e5                	push	hl
   101                          .i_27
   101  02ea  e1                	pop	hl
   101  02eb  e5                	push	hl
   101  02ec  7d                	ld	a,l
   101  02ed  d600              	sub	9
   101  02ef  7c                	ld	a,h
   101  02f0  17                	rla
   101  02f1  3f                	ccf
   101  02f2  1f                	rra
   101  02f3  de00              	sbc	128
   101  02f5  d20000            	jp	nc,i_26	;
   101  02f8  cd0000            	call	l_gint4sp	;
   101  02fb  010000            	ld	bc,30
   101  02fe  09                	add	hl,bc
   101  02ff  d1                	pop	de
   101  0300  d5                	push	de
   101  0301  eb                	ex	de,hl
   101  0302  19                	add	hl,de
   101  0303  7e                	ld	a,(hl)
   101  0304  fe00              	cp	32
   101  0306  c20000            	jp	nz,i_28	;
   101  0309  210000            	ld	hl,0	;const
   101  030c  c1                	pop	bc
   101  030d  c9                	ret
   101                          .i_26
   101  030e  c1                	pop	bc
   101  030f  210000            	ld	hl,1	;const
   101  0312  c9                	ret
   101                          
   101                          
   101                          	C_LINE	108,"main.c::is_full::0::10"
main.c::is_full::0::10:
   108                          
   108                          ; Function display_board flags 0x00000200 __smallc
   108                          ; void display_board(struct AVDGame * game)
   108                          ; parameter 'struct AVDGame * game' at sp+2 size(2)
   108                          	C_LINE	108,"main.c::display_board::0::10"
main.c::display_board::0::10:
   108                          ._display_board
   108  0313  210000            	ld	hl,i_1+27
   108  0316  e5                	push	hl
   108  0317  3e00              	ld	a,1
   108  0319  cd0000            	call	printf
   108  031c  c1                	pop	bc
   108  031d  210000            	ld	hl,0	;const
   108  0320  e5                	push	hl
   108  0321  c30000            	jp	i_31	;EOS
   108                          .i_29
   108  0324  e1                	pop	hl
   108  0325  e5                	push	hl
   108  0326  23                	inc	hl
   108  0327  23                	inc	hl
   108  0328  23                	inc	hl
   108  0329  c1                	pop	bc
   108  032a  e5                	push	hl
   108                          .i_31
   108  032b  e1                	pop	hl
   108  032c  e5                	push	hl
   108  032d  7d                	ld	a,l
   108  032e  d600              	sub	9
   108  0330  7c                	ld	a,h
   108  0331  17                	rla
   108  0332  3f                	ccf
   108  0333  1f                	rra
   108  0334  de00              	sbc	128
   108  0336  d20000            	jp	nc,i_30	;
   108  0339  210000            	ld	hl,i_1+386
   108  033c  e5                	push	hl
   108  033d  cd0000            	call	l_gint6sp	;
   108  0340  010000            	ld	bc,30
   108  0343  09                	add	hl,bc
   108  0344  e5                	push	hl
   108  0345  cd0000            	call	l_gint4sp	;
   108  0348  d1                	pop	de
   108  0349  19                	add	hl,de
   108  034a  cd0000            	call	l_gchar
   108  034d  e5                	push	hl
   108  034e  cd0000            	call	l_gint8sp	;
   108  0351  010000            	ld	bc,30
   108  0354  09                	add	hl,bc
   108  0355  e5                	push	hl
   108  0356  cd0000            	call	l_gint6sp	;
   108  0359  23                	inc	hl
   108  035a  d1                	pop	de
   108  035b  19                	add	hl,de
   108  035c  cd0000            	call	l_gchar
   108  035f  e5                	push	hl
   108  0360  210000            	ld	hl,10	;const
   108  0363  39                	add	hl,sp
   108  0364  4e                	ld	c,(hl)
   108  0365  23                	inc	hl
   108  0366  46                	ld	b,(hl)
   108  0367  210000            	ld	hl,30
   108  036a  09                	add	hl,bc
   108  036b  e5                	push	hl
   108  036c  cd0000            	call	l_gint8sp	;
   108  036f  23                	inc	hl
   108  0370  23                	inc	hl
   108  0371  d1                	pop	de
   108  0372  19                	add	hl,de
   108  0373  cd0000            	call	l_gchar
   108  0376  e5                	push	hl
   108  0377  3e00              	ld	a,4
   108  0379  cd0000            	call	printf
   108  037c  c1                	pop	bc
   108  037d  c1                	pop	bc
   108  037e  c1                	pop	bc
   108  037f  c1                	pop	bc
   108  0380  e1                	pop	hl
   108  0381  e5                	push	hl
   108  0382  7d                	ld	a,l
   108  0383  d600              	sub	6
   108  0385  7c                	ld	a,h
   108  0386  17                	rla
   108  0387  3f                	ccf
   108  0388  1f                	rra
   108  0389  de00              	sbc	128
   108  038b  d20000            	jp	nc,i_32	;
   108  038e  210000            	ld	hl,i_1+402
   108  0391  e5                	push	hl
   108  0392  3e00              	ld	a,1
   108  0394  cd0000            	call	printf
   108  0397  c1                	pop	bc
   108  0398  c30000            	jp	i_29	;EOS
   108                          .i_30
   108  039b  c1                	pop	bc
   108  039c  210000            	ld	hl,i_1+27
   108  039f  e5                	push	hl
   108  03a0  3e00              	ld	a,1
   108  03a2  cd0000            	call	printf
   108  03a5  c1                	pop	bc
   108  03a6  c9                	ret
   108                          
   108                          
   108                          	C_LINE	118,"main.c::display_board::0::12"
main.c::display_board::0::12:
   118                          
   118                          ; Function make_move flags 0x00000200 __smallc
   118                          ; int make_move(struct AVDGame * game, int position, char piece)
   118                          ; parameter 'char piece' at sp+2 size(1)
   118                          ; parameter 'int position' at sp+4 size(2)
   118                          ; parameter 'struct AVDGame * game' at sp+6 size(2)
   118                          	C_LINE	118,"main.c::make_move::0::12"
main.c::make_move::0::12:
   118                          ._make_move
   118  03a7  cd0000            	call	l_gint4sp	;
   118  03aa  7d                	ld	a,l
   118  03ab  d600              	sub	1
   118  03ad  7c                	ld	a,h
   118  03ae  17                	rla
   118  03af  3f                	ccf
   118  03b0  1f                	rra
   118  03b1  de00              	sbc	128
   118  03b3  da0000            	jp	c,i_34	;
   118  03b6  cd0000            	call	l_gint4sp	;
   118  03b9  110000            	ld	de,9
   118  03bc  eb                	ex	de,hl
   118  03bd  cd0000            	call	l_gt
   118  03c0  d20000            	jp	nc,i_33	;
   118                          .i_34
   118  03c3  210000            	ld	hl,0	;const
   118  03c6  c9                	ret
   118                          
   118                          
   118                          .i_33
   118  03c7  cd0000            	call	l_gint4sp	;
   118  03ca  2b                	dec	hl
   118  03cb  e5                	push	hl
   118  03cc  cd0000            	call	l_gint8sp	;
   118  03cf  010000            	ld	bc,30
   118  03d2  09                	add	hl,bc
   118  03d3  d1                	pop	de
   118  03d4  d5                	push	de
   118  03d5  eb                	ex	de,hl
   118  03d6  19                	add	hl,de
   118  03d7  cd0000            	call	l_gchar
   118  03da  3b                	dec	sp
   118  03db  7d                	ld	a,l
   118  03dc  e1                	pop	hl
   118  03dd  6f                	ld	l,a
   118  03de  e5                	push	hl
   118  03df  210000            	ld	hl,9	;const
   118  03e2  39                	add	hl,sp
   118  03e3  5e                	ld	e,(hl)
   118  03e4  23                	inc	hl
   118  03e5  56                	ld	d,(hl)
   118  03e6  d5                	push	de
   118  03e7  210000            	ld	hl,i_1+103
   118  03ea  e5                	push	hl
   118  03eb  cd0000            	call	strcmp_callee
   118  03ee  7c                	ld	a,h
   118  03ef  b5                	or	l
   118  03f0  2000              	jr	nz,ASMPC+3
   118  03f2  37                	scf
   118  03f3  d20000            	jp	nc,i_36	;
   118  03f6  210000            	ld	hl,9	;const
   118  03f9  39                	add	hl,sp
   118  03fa  4e                	ld	c,(hl)
   118  03fb  23                	inc	hl
   118  03fc  46                	ld	b,(hl)
   118  03fd  210000            	ld	hl,6
   118  0400  09                	add	hl,bc
   118  0401  c30000            	jp	i_37	;
   118                          .i_36
   118  0404  210000            	ld	hl,9	;const
   118  0407  39                	add	hl,sp
   118  0408  4e                	ld	c,(hl)
   118  0409  23                	inc	hl
   118  040a  46                	ld	b,(hl)
   118  040b  210000            	ld	hl,16
   118  040e  09                	add	hl,bc
   118                          .i_37
   118  040f  e5                	push	hl
   118  0410  210000            	ld	hl,11	;const
   118  0413  39                	add	hl,sp
   118  0414  5e                	ld	e,(hl)
   118  0415  23                	inc	hl
   118  0416  56                	ld	d,(hl)
   118  0417  d5                	push	de
   118  0418  210000            	ld	hl,i_1+103
   118  041b  e5                	push	hl
   118  041c  cd0000            	call	strcmp_callee
   118  041f  7c                	ld	a,h
   118  0420  b5                	or	l
   118  0421  2000              	jr	nz,ASMPC+3
   118  0423  37                	scf
   118  0424  d20000            	jp	nc,i_38	;
   118  0427  210000            	ld	hl,11	;const
   118  042a  39                	add	hl,sp
   118  042b  4e                	ld	c,(hl)
   118  042c  23                	inc	hl
   118  042d  46                	ld	b,(hl)
   118  042e  210000            	ld	hl,26
   118  0431  09                	add	hl,bc
   118  0432  cd0000            	call	l_gint	;
   118  0435  c30000            	jp	i_39	;
   118                          .i_38
   118  0438  210000            	ld	hl,11	;const
   118  043b  39                	add	hl,sp
   118  043c  4e                	ld	c,(hl)
   118  043d  23                	inc	hl
   118  043e  46                	ld	b,(hl)
   118  043f  210000            	ld	hl,28
   118  0442  09                	add	hl,bc
   118  0443  cd0000            	call	l_gint	;
   118                          .i_39
   118  0446  e5                	push	hl
   118  0447  210000            	ld	hl,0	;const
   118  044a  e5                	push	hl
   118  044b  e5                	push	hl
   118  044c  c30000            	jp	i_42	;EOS
   118                          .i_40
   118  044f  e1                	pop	hl
   118  0450  23                	inc	hl
   118  0451  e5                	push	hl
   118                          .i_42
   118  0452  210000            	ld	hl,0	;const
   118  0455  cd0000            	call	l_gintspsp	;
   118  0458  cd0000            	call	l_gint6sp	;
   118  045b  d1                	pop	de
   118  045c  cd0000            	call	l_lt
   118  045f  d20000            	jp	nc,i_41	;
   118  0462  210000            	ld	hl,6	;const
   118  0465  cd0000            	call	l_gintspsp	;
   118  0468  c1                	pop	bc
   118  0469  e1                	pop	hl
   118  046a  e5                	push	hl
   118  046b  c5                	push	bc
   118  046c  d1                	pop	de
   118  046d  19                	add	hl,de
   118  046e  cd0000            	call	l_gchar
   118  0471  e5                	push	hl
   118  0472  210000            	ld	hl,15	;const
   118  0475  39                	add	hl,sp
   118  0476  cd0000            	call	l_gchar
   118  0479  d1                	pop	de
   118  047a  cd0000            	call	l_eq
   118  047d  d20000            	jp	nc,i_43	;
   118  0480  210000            	ld	hl,1	;const
   118  0483  d1                	pop	de
   118  0484  c1                	pop	bc
   118  0485  e5                	push	hl
   118  0486  d5                	push	de
   118                          .i_41
   118  0487  c1                	pop	bc
   118  0488  e1                	pop	hl
   118  0489  e5                	push	hl
   118  048a  cd0000            	call	l_lneg
   118  048d  d20000            	jp	nc,i_44	;
   118  0490  210000            	ld	hl,0	;const
   118  0493  33                	inc	sp
   118  0494  c1                	pop	bc
   118  0495  c1                	pop	bc
   118  0496  c1                	pop	bc
   118  0497  c1                	pop	bc
   118  0498  c9                	ret
   118                          
   118                          
   118                          .i_44
   118  0499  210000            	ld	hl,6	;const
   118  049c  39                	add	hl,sp
   118  049d  7e                	ld	a,(hl)
   118  049e  fe00              	cp	32
   118  04a0  c20000            	jp	nz,i_45	;
   118  04a3  210000            	ld	hl,15	;const
   118  04a6  39                	add	hl,sp
   118  04a7  4e                	ld	c,(hl)
   118  04a8  23                	inc	hl
   118  04a9  46                	ld	b,(hl)
   118  04aa  210000            	ld	hl,30
   118  04ad  09                	add	hl,bc
   118  04ae  eb                	ex	de,hl
   118  04af  cd0000            	call	l_gint7sp	;
   118  04b2  19                	add	hl,de
   118  04b3  e5                	push	hl
   118  04b4  210000            	ld	hl,13	;const
   118  04b7  39                	add	hl,sp
   118  04b8  d1                	pop	de
   118  04b9  7e                	ld	a,(hl)
   118  04ba  12                	ld	(de),a
   118  04bb  210000            	ld	hl,1	;const
   118  04be  33                	inc	sp
   118  04bf  c1                	pop	bc
   118  04c0  c1                	pop	bc
   118  04c1  c1                	pop	bc
   118  04c2  c1                	pop	bc
   118  04c3  c9                	ret
   118                          
   118                          
   118                          .i_45
   118  04c4  210000            	ld	hl,11	;const
   118  04c7  39                	add	hl,sp
   118  04c8  7e                	ld	a,(hl)
   118  04c9  fe00              	cp	49
   118  04cb  c20000            	jp	nz,i_47	;
   118  04ce  210000            	ld	hl,6	;const
   118  04d1  39                	add	hl,sp
   118  04d2  7e                	ld	a,(hl)
   118  04d3  fe00              	cp	66
   118  04d5  ca0000            	jp	z,i_48	;
   118  04d8  fe00              	cp	67
   118  04da  c20000            	jp	nz,i_47	;
   118                          .i_50_i_47
   118  04dd  210000            	ld	hl,15	;const
   118  04e0  39                	add	hl,sp
   118  04e1  4e                	ld	c,(hl)
   118  04e2  23                	inc	hl
   118  04e3  46                	ld	b,(hl)
   118  04e4  210000            	ld	hl,30
   118  04e7  09                	add	hl,bc
   118  04e8  eb                	ex	de,hl
   118  04e9  cd0000            	call	l_gint7sp	;
   118  04ec  19                	add	hl,de
   118  04ed  e5                	push	hl
   118  04ee  210000            	ld	hl,13	;const
   118  04f1  39                	add	hl,sp
   118  04f2  d1                	pop	de
   118  04f3  7e                	ld	a,(hl)
   118  04f4  12                	ld	(de),a
   118  04f5  210000            	ld	hl,1	;const
   118  04f8  33                	inc	sp
   118  04f9  c1                	pop	bc
   118  04fa  c1                	pop	bc
   118  04fb  c1                	pop	bc
   118  04fc  c1                	pop	bc
   118  04fd  c9                	ret
   118                          
   118                          
   118                          .i_46
   118  04fe  210000            	ld	hl,11	;const
   118  0501  39                	add	hl,sp
   118  0502  7e                	ld	a,(hl)
   118  0503  fe00              	cp	65
   118  0505  c20000            	jp	nz,i_52	;
   118  0508  210000            	ld	hl,6	;const
   118  050b  39                	add	hl,sp
   118  050c  7e                	ld	a,(hl)
   118  050d  fe00              	cp	50
   118  050f  ca0000            	jp	z,i_53	;
   118  0512  fe00              	cp	51
   118  0514  c20000            	jp	nz,i_52	;
   118                          .i_55_i_52
   118  0517  210000            	ld	hl,15	;const
   118  051a  39                	add	hl,sp
   118  051b  4e                	ld	c,(hl)
   118  051c  23                	inc	hl
   118  051d  46                	ld	b,(hl)
   118  051e  210000            	ld	hl,30
   118  0521  09                	add	hl,bc
   118  0522  eb                	ex	de,hl
   118  0523  cd0000            	call	l_gint7sp	;
   118  0526  19                	add	hl,de
   118  0527  e5                	push	hl
   118  0528  210000            	ld	hl,13	;const
   118  052b  39                	add	hl,sp
   118  052c  d1                	pop	de
   118  052d  7e                	ld	a,(hl)
   118  052e  12                	ld	(de),a
   118  052f  210000            	ld	hl,1	;const
   118  0532  33                	inc	sp
   118  0533  c1                	pop	bc
   118  0534  c1                	pop	bc
   118  0535  c1                	pop	bc
   118  0536  c1                	pop	bc
   118  0537  c9                	ret
   118                          
   118                          
   118                          .i_51
   118  0538  210b00            	ld	hl,11	;const
   118  053b  39                	add	hl,sp
   118  053c  7e                	ld	a,(hl)
   118  053d  fe32              	cp	50
   118  053f  c26d05            	jp	nz,i_57	;
   118  0542  210600            	ld	hl,6	;const
   118  0545  39                	add	hl,sp
   118  0546  7e                	ld	a,(hl)
   118  0547  fe43              	cp	67
   118  0549  c26d05            	jp	nz,i_57	;
   118                          .i_58_i_57
   118  054c  210f00            	ld	hl,15	;const
   118  054f  39                	add	hl,sp
   118  0550  4e                	ld	c,(hl)
   118  0551  23                	inc	hl
   118  0552  46                	ld	b,(hl)
   118  0553  211e00            	ld	hl,30
   118  0556  09                	add	hl,bc
   118  0557  eb                	ex	de,hl
   118  0558  cd0000            	call	l_gint7sp	;
   118  055b  19                	add	hl,de
   118  055c  e5                	push	hl
   118  055d  210d00            	ld	hl,13	;const
   118  0560  39                	add	hl,sp
   118  0561  d1                	pop	de
   118  0562  7e                	ld	a,(hl)
   118  0563  12                	ld	(de),a
   118  0564  210100            	ld	hl,1	;const
   118  0567  33                	inc	sp
   118  0568  c1                	pop	bc
   118  0569  c1                	pop	bc
   118  056a  c1                	pop	bc
   118  056b  c1                	pop	bc
   118  056c  c9                	ret
   118                          
   118                          
   118                          .i_56
   118  056d  210b00            	ld	hl,11	;const
   118  0570  39                	add	hl,sp
   118  0571  7e                	ld	a,(hl)
   118  0572  fe42              	cp	66
   118  0574  c2a205            	jp	nz,i_60	;
   118  0577  210600            	ld	hl,6	;const
   118  057a  39                	add	hl,sp
   118  057b  7e                	ld	a,(hl)
   118  057c  fe33              	cp	51
   118  057e  c2a205            	jp	nz,i_60	;
   118                          .i_61_i_60
   118  0581  210f00            	ld	hl,15	;const
   118  0584  39                	add	hl,sp
   118  0585  4e                	ld	c,(hl)
   118  0586  23                	inc	hl
   118  0587  46                	ld	b,(hl)
   118  0588  211e00            	ld	hl,30
   118  058b  09                	add	hl,bc
   118  058c  eb                	ex	de,hl
   118  058d  cd0000            	call	l_gint7sp	;
   118  0590  19                	add	hl,de
   118  0591  e5                	push	hl
   118  0592  210d00            	ld	hl,13	;const
   118  0595  39                	add	hl,sp
   118  0596  d1                	pop	de
   118  0597  7e                	ld	a,(hl)
   118  0598  12                	ld	(de),a
   118  0599  210100            	ld	hl,1	;const
   118  059c  33                	inc	sp
   118  059d  c1                	pop	bc
   118  059e  c1                	pop	bc
   118  059f  c1                	pop	bc
   118  05a0  c1                	pop	bc
   118  05a1  c9                	ret
   118                          
   118                          
   118                          .i_59
   118  05a2  210000            	ld	hl,0	;const
   118  05a5  33                	inc	sp
   118  05a6  c1                	pop	bc
   118  05a7  c1                	pop	bc
   118  05a8  c1                	pop	bc
   118  05a9  c1                	pop	bc
   118  05aa  c9                	ret
   118                          
   118                          
   118                          	C_LINE	168,"main.c::make_move::0::22"
main.c::make_move::0::22:
   168                          
   168                          ; Function check_win flags 0x00000200 __smallc
   168                          ; int * check_win(struct AVDGame * game)
   168                          ; parameter 'struct AVDGame * game' at sp+2 size(2)
   168                          	C_LINE	168,"main.c::check_win::0::22"
main.c::check_win::0::22:
   168                          ._check_win
   168                          	SECTION	data_compiler
   168                          ._st_check_win_result
   168  0000  0000              	defw	0
   168  0002  0000              	defw	0
   168  0004  0000              	defw	0
   168  0006  0000              	defw	0
   168  0008  0000              	defw	0
   168                          	SECTION	code_compiler
   168                          	SECTION	data_compiler
   168                          ._auto_check_win_wins
   168  000a  0000              	defw	0
   168  000c  0000              	defw	1
   168  000e  0000              	defw	2
   168  0010  0000              	defw	3
   168  0012  0000              	defw	4
   168  0014  0000              	defw	5
   168  0016  0000              	defw	6
   168  0018  0000              	defw	7
   168  001a  0000              	defw	8
   168  001c  0000              	defw	0
   168  001e  0000              	defw	3
   168  0020  0000              	defw	6
   168  0022  0000              	defw	1
   168  0024  0000              	defw	4
   168  0026  0000              	defw	7
   168  0028  0000              	defw	2
   168  002a  0000              	defw	5
   168  002c  0000              	defw	8
   168  002e  0000              	defw	0
   168  0030  0000              	defw	4
   168  0032  0000              	defw	8
   168  0034  0000              	defw	2
   168  0036  0000              	defw	4
   168  0038  0000              	defw	6
   168                          	SECTION	code_compiler
   168  05ab  21d0ff            	ld	hl,65488	;const
   168  05ae  39                	add	hl,sp
   168  05af  f9                	ld	sp,hl
   168  05b0  eb                	ex	de,hl
   168  05b1  210a00            	ld	hl,_auto_check_win_wins
   168  05b4  013000            	ld	bc,48
   168  05b7  edb0              	ldir
   168  05b9  210000            	ld	hl,0	;const
   168  05bc  e5                	push	hl
   168  05bd  c3c305            	jp	i_66	;EOS
   168                          .i_64
   168  05c0  e1                	pop	hl
   168  05c1  23                	inc	hl
   168  05c2  e5                	push	hl
   168                          .i_66
   168  05c3  e1                	pop	hl
   168  05c4  e5                	push	hl
   168  05c5  7d                	ld	a,l
   168  05c6  d608              	sub	8
   168  05c8  7c                	ld	a,h
   168  05c9  17                	rla
   168  05ca  3f                	ccf
   168  05cb  1f                	rra
   168  05cc  de80              	sbc	128
   168  05ce  d20d08            	jp	nc,i_65	;
   168  05d1  213400            	ld	hl,52	;const
   168  05d4  39                	add	hl,sp
   168  05d5  4e                	ld	c,(hl)
   168  05d6  23                	inc	hl
   168  05d7  46                	ld	b,(hl)
   168  05d8  211e00            	ld	hl,30
   168  05db  09                	add	hl,bc
   168  05dc  e5                	push	hl
   168  05dd  210400            	ld	hl,4	;const
   168  05e0  39                	add	hl,sp
   168  05e1  e5                	push	hl
   168  05e2  2b                	dec	hl
   168  05e3  2b                	dec	hl
   168  05e4  cd0000            	call	l_gint	;
   168  05e7  44                	ld	b,h
   168  05e8  4d                	ld	c,l
   168  05e9  09                	add	hl,bc
   168  05ea  09                	add	hl,bc
   168  05eb  29                	add	hl,hl
   168  05ec  d1                	pop	de
   168  05ed  19                	add	hl,de
   168  05ee  cd0000            	call	l_gint	;
   168  05f1  d1                	pop	de
   168  05f2  19                	add	hl,de
   168  05f3  cd0000            	call	l_gchar
   168  05f6  3b                	dec	sp
   168  05f7  7d                	ld	a,l
   168  05f8  e1                	pop	hl
   168  05f9  6f                	ld	l,a
   168  05fa  e5                	push	hl
   168  05fb  213500            	ld	hl,53	;const
   168  05fe  39                	add	hl,sp
   168  05ff  4e                	ld	c,(hl)
   168  0600  23                	inc	hl
   168  0601  46                	ld	b,(hl)
   168  0602  211e00            	ld	hl,30
   168  0605  09                	add	hl,bc
   168  0606  e5                	push	hl
   168  0607  210500            	ld	hl,5	;const
   168  060a  39                	add	hl,sp
   168  060b  e5                	push	hl
   168  060c  2b                	dec	hl
   168  060d  2b                	dec	hl
   168  060e  cd0000            	call	l_gint	;
   168  0611  44                	ld	b,h
   168  0612  4d                	ld	c,l
   168  0613  09                	add	hl,bc
   168  0614  09                	add	hl,bc
   168  0615  29                	add	hl,hl
   168  0616  d1                	pop	de
   168  0617  19                	add	hl,de
   168  0618  cd0000            	call	l_gint2	;
   168  061b  d1                	pop	de
   168  061c  19                	add	hl,de
   168  061d  cd0000            	call	l_gchar
   168  0620  3b                	dec	sp
   168  0621  7d                	ld	a,l
   168  0622  e1                	pop	hl
   168  0623  6f                	ld	l,a
   168  0624  e5                	push	hl
   168  0625  213600            	ld	hl,54	;const
   168  0628  39                	add	hl,sp
   168  0629  4e                	ld	c,(hl)
   168  062a  23                	inc	hl
   168  062b  46                	ld	b,(hl)
   168  062c  211e00            	ld	hl,30
   168  062f  09                	add	hl,bc
   168  0630  e5                	push	hl
   168  0631  210600            	ld	hl,6	;const
   168  0634  39                	add	hl,sp
   168  0635  e5                	push	hl
   168  0636  2b                	dec	hl
   168  0637  2b                	dec	hl
   168  0638  cd0000            	call	l_gint	;
   168  063b  44                	ld	b,h
   168  063c  4d                	ld	c,l
   168  063d  09                	add	hl,bc
   168  063e  09                	add	hl,bc
   168  063f  29                	add	hl,hl
   168  0640  d1                	pop	de
   168  0641  19                	add	hl,de
   168  0642  cd0000            	call	l_gint4	;
   168  0645  d1                	pop	de
   168  0646  19                	add	hl,de
   168  0647  cd0000            	call	l_gchar
   168  064a  3b                	dec	sp
   168  064b  7d                	ld	a,l
   168  064c  e1                	pop	hl
   168  064d  6f                	ld	l,a
   168  064e  e5                	push	hl
   168  064f  210200            	ld	hl,2	;const
   168  0652  39                	add	hl,sp
   168  0653  7e                	ld	a,(hl)
   168  0654  fe41              	cp	65
   168  0656  ca6806            	jp	z,i_68	;
   168  0659  fe42              	cp	66
   168  065b  ca6806            	jp	z,i_68	;
   168  065e  210200            	ld	hl,2	;const
   168  0661  39                	add	hl,sp
   168  0662  7e                	ld	a,(hl)
   168  0663  fe43              	cp	67
   168  0665  c22d07            	jp	nz,i_70	;
   168                          .i_68
   168  0668  210100            	ld	hl,1	;const
   168  066b  39                	add	hl,sp
   168  066c  7e                	ld	a,(hl)
   168  066d  fe41              	cp	65
   168  066f  ca8106            	jp	z,i_71	;
   168  0672  fe42              	cp	66
   168  0674  ca8106            	jp	z,i_71	;
   168  0677  210100            	ld	hl,1	;const
   168  067a  39                	add	hl,sp
   168  067b  7e                	ld	a,(hl)
   168  067c  fe43              	cp	67
   168  067e  c22d07            	jp	nz,i_70	;
   168                          .i_71
   168  0681  210000            	ld	hl,0	;const
   168  0684  39                	add	hl,sp
   168  0685  7e                	ld	a,(hl)
   168  0686  fe41              	cp	65
   168  0688  ca9a06            	jp	z,i_73	;
   168  068b  fe42              	cp	66
   168  068d  ca9a06            	jp	z,i_73	;
   168  0690  210000            	ld	hl,0	;const
   168  0693  39                	add	hl,sp
   168  0694  7e                	ld	a,(hl)
   168  0695  fe43              	cp	67
   168  0697  c22d07            	jp	nz,i_70	;
   168                          .i_73
   168  069a  210200            	ld	hl,2	;const
   168  069d  39                	add	hl,sp
   168  069e  7e                	ld	a,(hl)
   168  069f  fe20              	cp	32
   168  06a1  37                	scf
   168  06a2  2001              	jr	nz,ASMPC+3
   168  06a4  3f                	ccf
   168  06a5  d22d07            	jp	nc,i_70	;
   168  06a8  210100            	ld	hl,1	;const
   168  06ab  39                	add	hl,sp
   168  06ac  7e                	ld	a,(hl)
   168  06ad  fe20              	cp	32
   168  06af  37                	scf
   168  06b0  2001              	jr	nz,ASMPC+3
   168  06b2  3f                	ccf
   168  06b3  d22d07            	jp	nc,i_70	;
   168  06b6  210000            	ld	hl,0	;const
   168  06b9  39                	add	hl,sp
   168  06ba  7e                	ld	a,(hl)
   168  06bb  fe20              	cp	32
   168  06bd  37                	scf
   168  06be  2001              	jr	nz,ASMPC+3
   168  06c0  3f                	ccf
   168  06c1  d22d07            	jp	nc,i_70	;
   168                          .i_75_i_70
   168  06c4  210100            	ld	hl,1	;const
   168  06c7  220000            	ld	(_st_check_win_result),hl
   168  06ca  210000            	ld	hl,0	;const
   168  06cd  220200            	ld	(_st_check_win_result+2),hl
   168  06d0  210400            	ld	hl,_st_check_win_result+4
   168  06d3  e5                	push	hl
   168  06d4  210700            	ld	hl,7	;const
   168  06d7  39                	add	hl,sp
   168  06d8  e5                	push	hl
   168  06d9  2b                	dec	hl
   168  06da  2b                	dec	hl
   168  06db  cd0000            	call	l_gint	;
   168  06de  44                	ld	b,h
   168  06df  4d                	ld	c,l
   168  06e0  09                	add	hl,bc
   168  06e1  09                	add	hl,bc
   168  06e2  29                	add	hl,hl
   168  06e3  d1                	pop	de
   168  06e4  19                	add	hl,de
   168  06e5  cd0000            	call	l_gint	;
   168  06e8  d1                	pop	de
   168  06e9  cd0000            	call	l_pint
   168  06ec  210600            	ld	hl,_st_check_win_result+6
   168  06ef  e5                	push	hl
   168  06f0  210700            	ld	hl,7	;const
   168  06f3  39                	add	hl,sp
   168  06f4  e5                	push	hl
   168  06f5  2b                	dec	hl
   168  06f6  2b                	dec	hl
   168  06f7  cd0000            	call	l_gint	;
   168  06fa  44                	ld	b,h
   168  06fb  4d                	ld	c,l
   168  06fc  09                	add	hl,bc
   168  06fd  09                	add	hl,bc
   168  06fe  29                	add	hl,hl
   168  06ff  d1                	pop	de
   168  0700  19                	add	hl,de
   168  0701  cd0000            	call	l_gint2	;
   168  0704  d1                	pop	de
   168  0705  cd0000            	call	l_pint
   168  0708  210800            	ld	hl,_st_check_win_result+8
   168  070b  e5                	push	hl
   168  070c  210700            	ld	hl,7	;const
   168  070f  39                	add	hl,sp
   168  0710  e5                	push	hl
   168  0711  2b                	dec	hl
   168  0712  2b                	dec	hl
   168  0713  cd0000            	call	l_gint	;
   168  0716  44                	ld	b,h
   168  0717  4d                	ld	c,l
   168  0718  09                	add	hl,bc
   168  0719  09                	add	hl,bc
   168  071a  29                	add	hl,hl
   168  071b  d1                	pop	de
   168  071c  19                	add	hl,de
   168  071d  cd0000            	call	l_gint4	;
   168  0720  d1                	pop	de
   168  0721  cd0000            	call	l_pint
   168  0724  213500            	ld	hl,53	;const
   168  0727  39                	add	hl,sp
   168  0728  f9                	ld	sp,hl
   168  0729  210000            	ld	hl,_st_check_win_result
   168  072c  c9                	ret
   168                          
   168                          
   168                          .i_67
   168  072d  210200            	ld	hl,2	;const
   168  0730  39                	add	hl,sp
   168  0731  7e                	ld	a,(hl)
   168  0732  fe31              	cp	49
   168  0734  ca4607            	jp	z,i_77	;
   168  0737  fe32              	cp	50
   168  0739  ca4607            	jp	z,i_77	;
   168  073c  210200            	ld	hl,2	;const
   168  073f  39                	add	hl,sp
   168  0740  7e                	ld	a,(hl)
   168  0741  fe33              	cp	51
   168  0743  c20808            	jp	nz,i_79	;
   168                          .i_77
   168  0746  210100            	ld	hl,1	;const
   168  0749  39                	add	hl,sp
   168  074a  7e                	ld	a,(hl)
   168  074b  fe31              	cp	49
   168  074d  ca5f07            	jp	z,i_80	;
   168  0750  fe32              	cp	50
   168  0752  ca5f07            	jp	z,i_80	;
   168  0755  210100            	ld	hl,1	;const
   168  0758  39                	add	hl,sp
   168  0759  7e                	ld	a,(hl)
   168  075a  fe33              	cp	51
   168  075c  c20808            	jp	nz,i_79	;
   168                          .i_80
   168  075f  210000            	ld	hl,0	;const
   168  0762  39                	add	hl,sp
   168  0763  7e                	ld	a,(hl)
   168  0764  fe31              	cp	49
   168  0766  ca7807            	jp	z,i_82	;
   168  0769  fe32              	cp	50
   168  076b  ca7807            	jp	z,i_82	;
   168  076e  210000            	ld	hl,0	;const
   168  0771  39                	add	hl,sp
   168  0772  7e                	ld	a,(hl)
   168  0773  fe33              	cp	51
   168  0775  c20808            	jp	nz,i_79	;
   168                          .i_82
   168  0778  210200            	ld	hl,2	;const
   168  077b  39                	add	hl,sp
   168  077c  7e                	ld	a,(hl)
   168  077d  fe20              	cp	32
   168  077f  37                	scf
   168  0780  2001              	jr	nz,ASMPC+3
   168  0782  3f                	ccf
   168  0783  d20808            	jp	nc,i_79	;
   168  0786  210100            	ld	hl,1	;const
   168  0789  39                	add	hl,sp
   168  078a  7e                	ld	a,(hl)
   168  078b  fe20              	cp	32
   168  078d  37                	scf
   168  078e  2001              	jr	nz,ASMPC+3
   168  0790  3f                	ccf
   168  0791  d20808            	jp	nc,i_79	;
   168  0794  210000            	ld	hl,0	;const
   168  0797  39                	add	hl,sp
   168  0798  7e                	ld	a,(hl)
   168  0799  fe20              	cp	32
   168  079b  37                	scf
   168  079c  2001              	jr	nz,ASMPC+3
   168  079e  3f                	ccf
   168  079f  d20808            	jp	nc,i_79	;
   168                          .i_84_i_79
   168  07a2  210100            	ld	hl,1	;const
   168  07a5  220000            	ld	(_st_check_win_result),hl
   168  07a8  220200            	ld	(_st_check_win_result+2),hl
   168  07ab  210400            	ld	hl,_st_check_win_result+4
   168  07ae  e5                	push	hl
   168  07af  210700            	ld	hl,7	;const
   168  07b2  39                	add	hl,sp
   168  07b3  e5                	push	hl
   168  07b4  2b                	dec	hl
   168  07b5  2b                	dec	hl
   168  07b6  cd0000            	call	l_gint	;
   168  07b9  44                	ld	b,h
   168  07ba  4d                	ld	c,l
   168  07bb  09                	add	hl,bc
   168  07bc  09                	add	hl,bc
   168  07bd  29                	add	hl,hl
   168  07be  d1                	pop	de
   168  07bf  19                	add	hl,de
   168  07c0  cd0000            	call	l_gint	;
   168  07c3  d1                	pop	de
   168  07c4  cd0000            	call	l_pint
   168  07c7  210600            	ld	hl,_st_check_win_result+6
   168  07ca  e5                	push	hl
   168  07cb  210700            	ld	hl,7	;const
   168  07ce  39                	add	hl,sp
   168  07cf  e5                	push	hl
   168  07d0  2b                	dec	hl
   168  07d1  2b                	dec	hl
   168  07d2  cd0000            	call	l_gint	;
   168  07d5  44                	ld	b,h
   168  07d6  4d                	ld	c,l
   168  07d7  09                	add	hl,bc
   168  07d8  09                	add	hl,bc
   168  07d9  29                	add	hl,hl
   168  07da  d1                	pop	de
   168  07db  19                	add	hl,de
   168  07dc  cd0000            	call	l_gint2	;
   168  07df  d1                	pop	de
   168  07e0  cd0000            	call	l_pint
   168  07e3  210800            	ld	hl,_st_check_win_result+8
   168  07e6  e5                	push	hl
   168  07e7  210700            	ld	hl,7	;const
   168  07ea  39                	add	hl,sp
   168  07eb  e5                	push	hl
   168  07ec  2b                	dec	hl
   168  07ed  2b                	dec	hl
   168  07ee  cd0000            	call	l_gint	;
   168  07f1  44                	ld	b,h
   168  07f2  4d                	ld	c,l
   168  07f3  09                	add	hl,bc
   168  07f4  09                	add	hl,bc
   168  07f5  29                	add	hl,hl
   168  07f6  d1                	pop	de
   168  07f7  19                	add	hl,de
   168  07f8  cd0000            	call	l_gint4	;
   168  07fb  d1                	pop	de
   168  07fc  cd0000            	call	l_pint
   168  07ff  213500            	ld	hl,53	;const
   168  0802  39                	add	hl,sp
   168  0803  f9                	ld	sp,hl
   168  0804  210000            	ld	hl,_st_check_win_result
   168  0807  c9                	ret
   168                          
   168                          
   168                          .i_76
   168  0808  33                	inc	sp
   168  0809  c1                	pop	bc
   168  080a  c3c005            	jp	i_64	;EOS
   168                          .i_65
   168  080d  c1                	pop	bc
   168  080e  213000            	ld	hl,48	;const
   168  0811  39                	add	hl,sp
   168  0812  f9                	ld	sp,hl
   168  0813  210000            	ld	hl,_st_check_win_result
   168  0816  c9                	ret
   168                          
   168                          
   168                          	C_LINE	210,"main.c::check_win::0::26"
main.c::check_win::0::26:
   210                          
   210                          ; Function strip_newline flags 0x00000200 __smallc
   210                          ; void strip_newline(char * str)
   210                          ; parameter 'char * str' at sp+2 size(2)
   210                          	C_LINE	210,"main.c::strip_newline::0::26"
main.c::strip_newline::0::26:
   210                          ._strip_newline
   210  0817  c1                	pop	bc
   210  0818  e1                	pop	hl
   210  0819  e5                	push	hl
   210  081a  c5                	push	bc
   210  081b  cd0000            	call	strlen_fastcall
   210  081e  e5                	push	hl
   210  081f  7c                	ld	a,h
   210  0820  b5                	or	l
   210  0821  ca4908            	jp	z,i_86	;
   210  0824  210400            	ld	hl,4	;const
   210  0827  cd0000            	call	l_gintspsp	;
   210  082a  c1                	pop	bc
   210  082b  e1                	pop	hl
   210  082c  e5                	push	hl
   210  082d  c5                	push	bc
   210  082e  2b                	dec	hl
   210  082f  d1                	pop	de
   210  0830  19                	add	hl,de
   210  0831  7e                	ld	a,(hl)
   210  0832  fe0a              	cp	10
   210  0834  c24908            	jp	nz,i_86	;
   210                          .i_87_i_86
   210  0837  210400            	ld	hl,4	;const
   210  083a  cd0000            	call	l_gintspsp	;
   210  083d  c1                	pop	bc
   210  083e  e1                	pop	hl
   210  083f  e5                	push	hl
   210  0840  c5                	push	bc
   210  0841  2b                	dec	hl
   210  0842  d1                	pop	de
   210  0843  19                	add	hl,de
   210  0844  3600              	ld	(hl),0
   210  0846  6e                	ld	l,(hl)
   210  0847  2600              	ld	h,0
   210                          .i_85
   210  0849  c1                	pop	bc
   210  084a  c9                	ret
   210                          
   210                          
   210                          	C_LINE	217,"main.c::strip_newline::0::28"
main.c::strip_newline::0::28:
   217                          
   217                          ; Function show_instructions flags 0x00000200 __smallc
   217                          ; void show_instructions()
   217                          	C_LINE	217,"main.c::show_instructions::0::28"
main.c::show_instructions::0::28:
   217                          ._show_instructions
   217  084b  219f01            	ld	hl,i_1+415
   217  084e  e5                	push	hl
   217  084f  3e01              	ld	a,1
   217  0851  cd0000            	call	printf
   217  0854  c1                	pop	bc
   217  0855  21c601            	ld	hl,i_1+454
   217  0858  e5                	push	hl
   217  0859  3e01              	ld	a,1
   217  085b  cd0000            	call	printf
   217  085e  c1                	pop	bc
   217  085f  211102            	ld	hl,i_1+529
   217  0862  e5                	push	hl
   217  0863  3e01              	ld	a,1
   217  0865  cd0000            	call	printf
   217  0868  c1                	pop	bc
   217  0869  214d02            	ld	hl,i_1+589
   217  086c  e5                	push	hl
   217  086d  3e01              	ld	a,1
   217  086f  cd0000            	call	printf
   217  0872  c1                	pop	bc
   217  0873  216002            	ld	hl,i_1+608
   217  0876  e5                	push	hl
   217  0877  3e01              	ld	a,1
   217  0879  cd0000            	call	printf
   217  087c  c1                	pop	bc
   217  087d  219502            	ld	hl,i_1+661
   217  0880  e5                	push	hl
   217  0881  3e01              	ld	a,1
   217  0883  cd0000            	call	printf
   217  0886  c1                	pop	bc
   217  0887  21cb02            	ld	hl,i_1+715
   217  088a  e5                	push	hl
   217  088b  3e01              	ld	a,1
   217  088d  cd0000            	call	cprintf
   217  0890  c1                	pop	bc
   217  0891  cd0000            	call	getch
   217  0894  21e602            	ld	hl,i_1+742
   217  0897  e5                	push	hl
   217  0898  3e01              	ld	a,1
   217  089a  cd0000            	call	printf
   217  089d  c1                	pop	bc
   217  089e  21f802            	ld	hl,i_1+760
   217  08a1  e5                	push	hl
   217  08a2  3e01              	ld	a,1
   217  08a4  cd0000            	call	printf
   217  08a7  c1                	pop	bc
   217  08a8  211203            	ld	hl,i_1+786
   217  08ab  e5                	push	hl
   217  08ac  3e01              	ld	a,1
   217  08ae  cd0000            	call	printf
   217  08b1  c1                	pop	bc
   217  08b2  212c03            	ld	hl,i_1+812
   217  08b5  e5                	push	hl
   217  08b6  3e01              	ld	a,1
   217  08b8  cd0000            	call	printf
   217  08bb  c1                	pop	bc
   217  08bc  214103            	ld	hl,i_1+833
   217  08bf  e5                	push	hl
   217  08c0  3e01              	ld	a,1
   217  08c2  cd0000            	call	printf
   217  08c5  c1                	pop	bc
   217  08c6  215603            	ld	hl,i_1+854
   217  08c9  e5                	push	hl
   217  08ca  3e01              	ld	a,1
   217  08cc  cd0000            	call	printf
   217  08cf  c1                	pop	bc
   217  08d0  21cb02            	ld	hl,i_1+715
   217  08d3  e5                	push	hl
   217  08d4  3e01              	ld	a,1
   217  08d6  cd0000            	call	cprintf
   217  08d9  c1                	pop	bc
   217  08da  cd0000            	call	getch
   217  08dd  217e03            	ld	hl,i_1+894
   217  08e0  e5                	push	hl
   217  08e1  3e01              	ld	a,1
   217  08e3  cd0000            	call	printf
   217  08e6  c1                	pop	bc
   217  08e7  218c03            	ld	hl,i_1+908
   217  08ea  e5                	push	hl
   217  08eb  3e01              	ld	a,1
   217  08ed  cd0000            	call	printf
   217  08f0  c1                	pop	bc
   217  08f1  21c503            	ld	hl,i_1+965
   217  08f4  e5                	push	hl
   217  08f5  3e01              	ld	a,1
   217  08f7  cd0000            	call	printf
   217  08fa  c1                	pop	bc
   217  08fb  21ea03            	ld	hl,i_1+1002
   217  08fe  e5                	push	hl
   217  08ff  3e01              	ld	a,1
   217  0901  cd0000            	call	printf
   217  0904  c1                	pop	bc
   217  0905  219201            	ld	hl,i_1+402
   217  0908  e5                	push	hl
   217  0909  3e01              	ld	a,1
   217  090b  cd0000            	call	printf
   217  090e  c1                	pop	bc
   217  090f  21f703            	ld	hl,i_1+1015
   217  0912  e5                	push	hl
   217  0913  3e01              	ld	a,1
   217  0915  cd0000            	call	printf
   217  0918  c1                	pop	bc
   217  0919  219201            	ld	hl,i_1+402
   217  091c  e5                	push	hl
   217  091d  3e01              	ld	a,1
   217  091f  cd0000            	call	printf
   217  0922  c1                	pop	bc
   217  0923  210404            	ld	hl,i_1+1028
   217  0926  e5                	push	hl
   217  0927  3e01              	ld	a,1
   217  0929  cd0000            	call	printf
   217  092c  c1                	pop	bc
   217  092d  211104            	ld	hl,i_1+1041
   217  0930  e5                	push	hl
   217  0931  3e01              	ld	a,1
   217  0933  cd0000            	call	printf
   217  0936  c1                	pop	bc
   217  0937  21cb02            	ld	hl,i_1+715
   217  093a  e5                	push	hl
   217  093b  3e01              	ld	a,1
   217  093d  cd0000            	call	cprintf
   217  0940  c1                	pop	bc
   217  0941  cd0000            	call	getch
   217  0944  214004            	ld	hl,i_1+1088
   217  0947  e5                	push	hl
   217  0948  3e01              	ld	a,1
   217  094a  cd0000            	call	printf
   217  094d  c1                	pop	bc
   217  094e  214a04            	ld	hl,i_1+1098
   217  0951  e5                	push	hl
   217  0952  3e01              	ld	a,1
   217  0954  cd0000            	call	printf
   217  0957  c1                	pop	bc
   217  0958  219304            	ld	hl,i_1+1171
   217  095b  e5                	push	hl
   217  095c  3e01              	ld	a,1
   217  095e  cd0000            	call	printf
   217  0961  c1                	pop	bc
   217  0962  21c104            	ld	hl,i_1+1217
   217  0965  e5                	push	hl
   217  0966  3e01              	ld	a,1
   217  0968  cd0000            	call	printf
   217  096b  c1                	pop	bc
   217  096c  21fd04            	ld	hl,i_1+1277
   217  096f  e5                	push	hl
   217  0970  3e01              	ld	a,1
   217  0972  cd0000            	call	printf
   217  0975  c1                	pop	bc
   217  0976  c9                	ret
   217                          
   217                          
   217                          	C_LINE	253,"main.c::show_instructions::0::29"
main.c::show_instructions::0::29:
   253                          
   253                          ; Function main flags 0x00000000 __stdc
   253                          ; int main()
   253                          	C_LINE	253,"main.c::main::0::30"
main.c::main::0::30:
   253                          ._main
   253  0977  21d9ff            	ld	hl,65497	;const
   253  097a  39                	add	hl,sp
   253  097b  f9                	ld	sp,hl
   253  097c  eb                	ex	de,hl
   253  097d  216700            	ld	hl,i_1+103
   253  0980  d5                	push	de
   253  0981  af                	xor	a
   253                          .i_88
   253  0982  be                	cp	(hl)
   253  0983  eda0              	ldi
   253  0985  20fb              	jr	nz,i_88
   253  0987  e1                	pop	hl
   253  0988  210600            	ld	hl,6	;const
   253  098b  39                	add	hl,sp
   253  098c  eb                	ex	de,hl
   253  098d  212405            	ld	hl,i_1+1316
   253  0990  d5                	push	de
   253  0991  af                	xor	a
   253                          .i_89
   253  0992  be                	cp	(hl)
   253  0993  eda0              	ldi
   253  0995  20fb              	jr	nz,i_89
   253  0997  e1                	pop	hl
   253  0998  211000            	ld	hl,16	;const
   253  099b  39                	add	hl,sp
   253  099c  eb                	ex	de,hl
   253  099d  212c05            	ld	hl,i_1+1324
   253  09a0  d5                	push	de
   253  09a1  af                	xor	a
   253                          .i_90
   253  09a2  be                	cp	(hl)
   253  09a3  eda0              	ldi
   253  09a5  20fb              	jr	nz,i_90
   253  09a7  e1                	pop	hl
   253  09a8  211a00            	ld	hl,26	;const
   253  09ab  39                	add	hl,sp
   253  09ac  3607              	ld	(hl),7
   253  09ae  23                	inc	hl
   253  09af  3600              	ld	(hl),0
   253  09b1  211c00            	ld	hl,28	;const
   253  09b4  39                	add	hl,sp
   253  09b5  3607              	ld	(hl),7
   253  09b7  23                	inc	hl
   253  09b8  3600              	ld	(hl),0
   253  09ba  210000            	ld	hl,0	;const
   253  09bd  e5                	push	hl
   253  09be  c3c409            	jp	i_93	;EOS
   253                          .i_91
   253  09c1  e1                	pop	hl
   253  09c2  23                	inc	hl
   253  09c3  e5                	push	hl
   253                          .i_93
   253  09c4  e1                	pop	hl
   253  09c5  e5                	push	hl
   253  09c6  7d                	ld	a,l
   253  09c7  d609              	sub	9
   253  09c9  7c                	ld	a,h
   253  09ca  17                	rla
   253  09cb  3f                	ccf
   253  09cc  1f                	rra
   253  09cd  de80              	sbc	128
   253  09cf  d2df09            	jp	nc,i_92	;
   253  09d2  212000            	ld	hl,32	;const
   253  09d5  39                	add	hl,sp
   253  09d6  d1                	pop	de
   253  09d7  d5                	push	de
   253  09d8  eb                	ex	de,hl
   253  09d9  19                	add	hl,de
   253  09da  3620              	ld	(hl),32
   253  09dc  c3c109            	jp	i_91	;EOS
   253                          .i_92
   253  09df  c1                	pop	bc
   253  09e0  210000            	ld	hl,0	;const
   253  09e3  39                	add	hl,sp
   253  09e4  e5                	push	hl
   253  09e5  cd0000            	call	_play
   253  09e8  c1                	pop	bc
   253  09e9  212700            	ld	hl,39	;const
   253  09ec  39                	add	hl,sp
   253  09ed  f9                	ld	sp,hl
   253  09ee  210000            	ld	hl,0	;const
   253  09f1  c9                	ret
   253                          
   253                          
   253                          	SECTION	bss_compiler
   253                          	SECTION	code_compiler
   253                          ; --- Start of Optimiser additions ---
   253                          	defc	i_2 = i_3
   253                          	defc	i_48 = i_50_i_47
   253                          	defc	i_53 = i_55_i_52
   253                          	defc	i_28 = i_25
   253                          	defc	i_32 = i_29
   253                          	defc	i_43 = i_40
   253                          	defc	i_47 = i_46
   253                          	defc	i_52 = i_51
   253                          	defc	i_57 = i_56
   253                          	defc	i_60 = i_59
   253                          	defc	i_70 = i_67
   253                          	defc	i_79 = i_76
   253                          	defc	i_86 = i_85
   253                          
   253                          	SECTION	rodata_compiler
   253                          .i_1
   253  0000  0000000000000000  	defm	"Welcome to Alpha vs Digits!"
              0000000001000200  
              0300040005000600  
              070008            
   253  001b  0a                	defb	10
   253                          
   253                          	defm	""
   253  001c  00                	defb	0
   253                          
   253  001d  0003000600010004  	defm	"Would you like to see the inst"
              0007000200050008  
              0000000400080002  
              000400060000      
   253  003b  0075000069590073  	defm	"ructions? (y/n): "
              3f20284b086e0c00  
              20                
   253  004c  00                	defb	0
   253                          
   253  004d  00002773e0027572  	defm	"%s's turn. Pick a piece: "
              000020b302630c00  
              6120000065631303  
              20                
   253  0066  00                	defb	0
   253                          
   253  0067  4d0070680e        	defm	"Alpha"
   253  006c  00                	defb	0
   253                          
   253  006d  256300            	defm	"%c "
   253  0070  00                	defb	0
   253                          
   253  0071  456e02650000706f  	defm	"Enter position (1-9) or 0 to q"
              730c00696f6e2028  
              3167002920000020  
              3020016f209e      
   253  008f  00690c0020        	defm	"uit: "
   253  0094  00                	defb	0
   253                          
   253  0095  416c7006002076a9  	defm	"Alpha vs Digits Quit. Thanks f"
              00440c0069747320  
              511000742e200e00  
              616e6b732066      
   253  00b3  6700207000007969  	defm	"or playing!"
              6e0121            
   253  00be  0a                	defb	10
   253                          
   253                          	defm	""
   253  00bf  00                	defb	0
   253                          
   253  00c0  00700e0069616c20  	defm	"Special thanks to DJ, Leo, and"
              741a006e6b000074  
              e000440e00204c65  
              6f2c1c006e64      
   253  00de  0000726f0000666f  	defm	" Grok for making this game pos"
              eb006d616b690000  
              2000006900006761  
              000020180173      
   253  00fc  6d00626c0600      	defm	"sible!"
   253  0102  0a                	defb	10
   253                          
   253                          	defm	""
   253  0103  00                	defb	0
   253                          
   253  0104  006e000072207000  	defm	"Enter piece: "
              0063650220        
   253  0111  00                	defb	0
   253                          
   253  0112  006e7661e8006420  	defm	"Invalid move. Try again."
              1b00766501200000  
              792071006169012e  
   253  012a  0a                	defb	10
   253                          
   253                          	defm	""
   253  012b  00                	defb	0
   253                          
   253  012c  416c04006120760a  	defm	"Alpha vs Digits Over: %s wins "
              0044690000747300  
              007665723a040073  
              207717087320      
   253  014a  0400746800002564  	defm	"with [%d, %d, %d]!"
              2c2001642c7c0164  
              9500              
   253  015c  0a                	defb	10
   253                          
   253                          	defm	""
   253  015d  00                	defb	0
   253                          
   253  015e  016900007473      	defm	"Digits"
   253  0164  00                	defb	0
   253                          
   253  0165  006c700161000073  	defm	"Alpha vs Digits over! Draw."
              dc05696700007320  
              6f10007221204472  
              04012e            
   253  0180  0a                	defb	10
   253                          
   253                          	defm	""
   253  0181  00                	defb	0
   253                          
   253  0182  200000207c060063  	defm	" %c | %c | %c "
              207c0a006320      
   253  0190  0a                	defb	10
   253                          
   253                          	defm	""
   253  0191  00                	defb	0
   253                          
   253  0192  2d2d00002d2d2d2b  	defm	"---+---+---"
              06002d            
   253  019d  0a                	defb	10
   253                          
   253                          	defm	""
   253  019e  00                	defb	0
   253                          
   253                          	defm	""
   253  019f  0a                	defb	10
   253                          
   253  01a0  083d3d06006c7000  	defm	"=== Alpha vs Digits Instructio"
              0020000020440000  
              69747320496e0000  
              7275633069e2      
   253  01be  017395003d3d      	defm	"ns ==="
   253  01c4  0a                	defb	10
   253                          
   253                          	defm	""
   253  01c5  00                	defb	0
   253                          
   253  01c6  00007068c0007673  	defm	"Alpha vs Digits is a strategic"
              0144000069dc0520  
              6900006120731100  
              617465676913      
   253  01e4  007400002d030063  	defm	" tic-tac-toe variant played on"
              00006f0400766100  
              00616ea703706c61  
              790000201302      
   253  0202  2012013378012000  	defm	" a 3x3 board."
              006172642e        
   253  020f  0a                	defb	10
   253                          
   253                          	defm	""
   253  0210  00                	defb	0
   253                          
   253  0211  48006f13006c6100  	defm	"Two players, Alpha and Digits,"
              007273ab05416c70  
              000020616e810244  
              150069740000      
   253  022f  2074130365202c01  	defm	" take turns placing pieces."
              726e732070000063  
              696e4902705e0163  
              4c022e            
   253  024a  0a                	defb	10
   253                          
   253                          	defm	""
   253  024b  0a                	defb	10
   253                          
   253                          	defm	""
   253  024c  00                	defb	0
   253                          
   253  024d  5000006300002061  	defm	"Pieces and Ranks:"
              6e00005200006b73  
              3a                
   253  025e  0a                	defb	10
   253                          
   253                          	defm	""
   253  025f  00                	defb	0
   253                          
   253  0260  2d00006c70680520  	defm	"- Alpha pieces: A (highest), B"
              0000656365733a20  
              c000286801670000  
              737429130042      
   253  027e  20286d6915006c65  	defm	" (middle), C (lowest)"
              000020432067006f  
              7700007429        
   253  0293  0a                	defb	10
   253                          
   253                          	defm	""
   253  0294  00                	defb	0
   253                          
   253  0295  2d209f02675e0173  	defm	"- Digits pieces: 1 (highest), "
              a20269670065733a  
              20312028fb696768  
              657374294800      
   253  02b3  320c006d6900006c  	defm	"2 (middle), 3 (lowest)"
              651303203365016c  
              6f0165000029      
   253  02c9  0a                	defb	10
   253                          
   253                          	defm	""
   253  02ca  00                	defb	0
   253                          
   253  02cb  007265017300006e  	defm	"Press enter to continue."
              dc05722000002063  
              6f6e74696e750000  
   253  02e3  0d                	defb	13
   253                          
   253                          	defm	""
   253  02e4  0a                	defb	10
   253                          
   253                          	defm	""
   253  02e5  00                	defb	0
   253                          
   253  02e6  0276657277726974  	defm	"Overwrite Rules:"
              092052756c65803a  
   253  02f6  0a                	defb	10
   253                          
   253                          	defm	""
   253  02f7  00                	defb	0
   253                          
   253  02f8  2d0000201e006e20  	defm	"- 1 can overwrite B or C"
              6f766572772069e7  
              022000006f722043  
   253  0310  0a                	defb	10
   253                          
   253                          	defm	""
   253  0311  00                	defb	0
   253                          
   253  0312  2d201b0063610120  	defm	"- A can overwrite 2 or 3"
              0000657200006974  
              2b0332206f722033  
   253  032a  0a                	defb	10
   253                          
   253                          	defm	""
   253  032b  00                	defb	0
   253                          
   253  032c  2d20320963616e20  	defm	"- 2 can overwrite C"
              6f80659b03728201  
              652000            
   253  033f  0a                	defb	10
   253                          
   253                          	defm	""
   253  0340  00                	defb	0
   253                          
   253  0341  1e00422063000020  	defm	"- B can overwrite 3"
              6f76000077720000  
              651e00            
   253  0354  0a                	defb	10
   253                          
   253                          	defm	""
   253  0355  00                	defb	0
   253                          
   253  0356  2d00006d70747900  	defm	"- Empty spaces ( ) can take an"
              0070610a00732028  
              20291e00616e2000  
              006b6520616e      
   253  0374  00007069046300    	defm	"y piece"
   253  037b  0a                	defb	10
   253                          
   253                          	defm	""
   253  037c  0a                	defb	10
   253                          
   253                          	defm	""
   253  037d  00                	defb	0
   253                          
   253  037e  486f7720746f0650  	defm	"How to Play:"
              6c61793a          
   253  038a  0a                	defb	10
   253                          
   253                          	defm	""
   253  038b  00                	defb	0
   253                          
   253  038c  2403459201657201  	defm	"- Enter a position (1-9) to pl"
              6100006f73240369  
              6f1b002831013900  
              00746f200000      
   253  03aa  6163012061207069  	defm	"ace a piece, or 0 to quit"
              8063c30320000020  
              0900746f000075c7  
              03                
   253  03c3  0a                	defb	10
   253                          
   253                          	defm	""
   253  03c4  00                	defb	0
   253                          
   253  03c5  0020500000697469  	defm	"- Positions are numbered like "
              0000731e00726520  
              6e756d0000726564  
              206c69090020      
   253  03e3  746869733a        	defm	"this:"
   253  03e8  0a                	defb	10
   253                          
   253                          	defm	""
   253  03e9  00                	defb	0
   253                          
   253  03ea  2031000020322001  	defm	" 1 | 2 | 3 "
              203304            
   253  03f5  0a                	defb	10
   253                          
   253                          	defm	""
   253  03f6  00                	defb	0
   253                          
   253  03f7  0900207c20352006  	defm	" 4 | 5 | 6 "
              003620            
   253  0402  0a                	defb	10
   253                          
   253                          	defm	""
   253  0403  00                	defb	0
   253                          
   253  0404  2009007c2038207c  	defm	" 7 | 8 | 9 "
              100020            
   253  040f  0a                	defb	10
   253                          
   253                          	defm	""
   253  0410  00                	defb	0
   253                          
   253  0411  0b005468656e2065  	defm	"- Then enter a piece from your"
              6700657200002070  
              690163653804720b  
              0020796f7572      
   253  042f  1a00766100006146  	defm	" available set"
              04650b006574      
   253  043d  0a                	defb	10
   253                          
   253                          	defm	""
   253  043e  0a                	defb	10
   253                          
   253                          	defm	""
   253  043f  00                	defb	0
   253                          
   253  0440  1c006e6e0000673a  	defm	"Winning:"
   253  0448  0a                	defb	10
   253                          
   253                          	defm	""
   253  0449  00                	defb	0
   253                          
   253  044a  2d20575204206279  	defm	"- Win by getting three Alpha p"
              2000007400006e00  
              0074680000658704  
              6c0600610000      
   253  0468  6965636573202800  	defm	"ieces (A, B, or C) or three Di"
              0020420f006f7200  
              0029200000204f04  
              720100204469      
   253  0486  6769747320000065  	defm	"gits pieces"
              990473            
   253  0491  0a                	defb	10
   253                          
   253                          	defm	""
   253  0492  00                	defb	0
   253                          
   253  0493  202028312c203206  	defm	"  (1, 2, or 3) in a row, colum"
              006f72202029c404  
              6e0f0020726f772c  
              1e006f6c7500      
   253  04b1  002c206f0d006469  	defm	"n, or diagonal"
              61676f01006c      
   253  04bf  0a                	defb	10
   253                          
   253                          	defm	""
   253  04c0  00                	defb	0
   253                          
   253  04c1  2d2054680b006761  	defm	"- The game ends in a draw if t"
              6d3120fe04640600  
              696e204220dd0461  
              4320fe04200f      
   253  04df  006520626f611e00  	defm	"he board fills without a win"
              2066690000732077  
              0d00686f75742001  
              0077696e          
   253  04fb  0a                	defb	10
   253                          
   253                          	defm	""
   253  04fc  00                	defb	0
   253                          
   253  04fd  3d3d0b003d3d3d41  	defm	"=============================="
              3d38053d06003d3d  
              3d323d17053d333d  
              38053d0f003d      
   253  051b  3d3d3d3d1e00      	defm	"======"
   253  0521  0a                	defb	10
   253                          
   253                          	defm	""
   253  0522  0a                	defb	10
   253                          
   253                          	defm	""
   253  0523  00                	defb	0
   253                          
   253  0524  00004243430d00    	defm	"ABBCCCC"
   253  052b  00                	defb	0
   253                          
   253  052c  31323233010033    	defm	"1223333"
   253  0533  00                	defb	0
   253                          
   253                          
   253                          ; --- Start of Static Variables ---
   253                          
   253                          	SECTION	bss_compiler
   253                          	SECTION	code_compiler
   253                          
   253                          
   253                          ; --- Start of Scope Defns ---
   253                          
   253                          	GLOBAL	open
   253                          	GLOBAL	creat
   253                          	GLOBAL	close
   253                          	GLOBAL	read
   253                          	GLOBAL	write
   253                          	GLOBAL	lseek
   253                          	GLOBAL	readbyte
   253                          	GLOBAL	writebyte
   253                          	GLOBAL	fsync
   253                          	GLOBAL	getcwd
   253                          	GLOBAL	chdir
   253                          	GLOBAL	getwd
   253                          	GLOBAL	rmdir
   253                          	GLOBAL	__RND_BLOCKSIZE
   253                          	GLOBAL	rnd_loadblock
   253                          	GLOBAL	rnd_saveblock
   253                          	GLOBAL	rnd_erase
   253                          	GLOBAL	rnd_erase_fastcall
   253                          	GLOBAL	__FOPEN_MAX
   253                          	GLOBAL	__sgoioblk
   253                          	GLOBAL	__sgoioblk_end
   253                          	GLOBAL	fopen_zsock
   253                          	GLOBAL	fileno
   253                          	GLOBAL	fopen
   253                          	GLOBAL	freopen
   253                          	GLOBAL	fdopen
   253                          	GLOBAL	_freopen1
   253                          	GLOBAL	fmemopen
   253                          	GLOBAL	funopen
   253                          	GLOBAL	fclose
   253                          	GLOBAL	fflush
   253                          	GLOBAL	closeall
   253                          	GLOBAL	fgets
   253                          	GLOBAL	fputs
   253                          	GLOBAL	fputs_callee
   253                          	GLOBAL	fputc
   253                          	GLOBAL	fputc_callee
   253                          	GLOBAL	fgetc
   253                          	GLOBAL	ungetc
   253                          	GLOBAL	feof
   253                          	GLOBAL	feof_fastcall
   253                          	GLOBAL	ferror
   253                          	GLOBAL	ferror_fastcall
   253                          	GLOBAL	puts
   253                          	GLOBAL	ftell
   253                          	GLOBAL	fgetpos
   253                          	GLOBAL	fseek
   253                          	GLOBAL	fread
   253                          	GLOBAL	fwrite
   253                          	GLOBAL	gets
   253                          	GLOBAL	printf
   253                          	GLOBAL	fprintf
   253                          	GLOBAL	sprintf
   253                          	GLOBAL	snprintf
   253                          	GLOBAL	vfprintf
   253                          	GLOBAL	vsnprintf
   253                          	GLOBAL	printn
   253                          	GLOBAL	scanf
   253                          	GLOBAL	fscanf
   253                          	GLOBAL	sscanf
   253                          	GLOBAL	vfscanf
   253                          	GLOBAL	vsscanf
   253                          	GLOBAL	getarg
   253                          	GLOBAL	fchkstd
   253                          	GLOBAL	fgetc_cons
   253                          	GLOBAL	fgetc_cons_inkey
   253                          	GLOBAL	fputc_cons
   253                          	GLOBAL	fgets_cons
   253                          	GLOBAL	puts_cons
   253                          	GLOBAL	fabandon
   253                          	GLOBAL	fdtell
   253                          	GLOBAL	fdgetpos
   253                          	GLOBAL	rename
   253                          	GLOBAL	remove
   253                          	GLOBAL	getk
   253                          	GLOBAL	getk_inkey
   253                          	GLOBAL	printk
   253                          	GLOBAL	perror
   253                          	GLOBAL	set_fputc_cons
   253                          	GLOBAL	fputc_cons_native
   253                          	GLOBAL	fputc_cons_generic
   253                          	GLOBAL	fputc_cons_ansi
   253                          	GLOBAL	atoi
   253                          	GLOBAL	atoi_fastcall
   253                          	GLOBAL	atol
   253                          	GLOBAL	atol_fastcall
   253                          	GLOBAL	itoa
   253                          	GLOBAL	itoa_callee
   253                          	GLOBAL	ltoa
   253                          	GLOBAL	ltoa_callee
   253                          	GLOBAL	strtol
   253                          	GLOBAL	strtol_callee
   253                          	GLOBAL	strtoul
   253                          	GLOBAL	strtoul_callee
   253                          	GLOBAL	ultoa
   253                          	GLOBAL	ultoa_callee
   253                          	GLOBAL	utoa
   253                          	GLOBAL	utoa_callee
   253                          	GLOBAL	_atoll
   253                          	GLOBAL	_atoll_callee
   253                          	GLOBAL	_lltoa
   253                          	GLOBAL	_lltoa_callee
   253                          	GLOBAL	_strtoll
   253                          	GLOBAL	_strtoll_callee
   253                          	GLOBAL	_strtoull
   253                          	GLOBAL	_strtoull_callee
   253                          	GLOBAL	_ulltoa
   253                          	GLOBAL	_ulltoa_callee
   253                          	GLOBAL	rand
   253                          	GLOBAL	srand
   253                          	GLOBAL	srand_fastcall
   253                          	GLOBAL	mallinit
   253                          	GLOBAL	sbrk
   253                          	GLOBAL	calloc
   253                          	GLOBAL	free
   253                          	GLOBAL	malloc
   253                          	GLOBAL	realloc
   253                          	GLOBAL	mallinfo
   253                          	GLOBAL	malloc_fastcall
   253                          	GLOBAL	free_fastcall
   253                          	GLOBAL	sbrk_callee
   253                          	GLOBAL	calloc_callee
   253                          	GLOBAL	realloc_callee
   253                          	GLOBAL	mallinfo_callee
   253                          	GLOBAL	HeapCreate
   253                          	GLOBAL	HeapSbrk
   253                          	GLOBAL	HeapSbrk_callee
   253                          	GLOBAL	HeapCalloc
   253                          	GLOBAL	HeapCalloc_callee
   253                          	GLOBAL	HeapFree
   253                          	GLOBAL	HeapFree_callee
   253                          	GLOBAL	HeapAlloc
   253                          	GLOBAL	HeapAlloc_callee
   253                          	GLOBAL	HeapRealloc
   253                          	GLOBAL	HeapRealloc_callee
   253                          	GLOBAL	HeapInfo
   253                          	GLOBAL	HeapInfo_callee
   253                          	GLOBAL	exit
   253                          	GLOBAL	atexit
   253                          	GLOBAL	exit_fastcall
   253                          	GLOBAL	atexit_fastcall
   253                          	GLOBAL	getenv
   253                          	GLOBAL	getenv_r
   253                          	GLOBAL	setenv
   253                          	GLOBAL	unsetenv
   253                          	GLOBAL	getopt
   253                          	GLOBAL	_optarg
   253                          	GLOBAL	_opterr
   253                          	GLOBAL	_optind
   253                          	GLOBAL	_optopt
   253                          	GLOBAL	_optreset
   253                          	GLOBAL	l_bsearch
   253                          	GLOBAL	l_bsearch_callee
   253                          	GLOBAL	l_qsort
   253                          	GLOBAL	l_qsort_callee
   253                          	GLOBAL	qsort_sccz80
   253                          	GLOBAL	qsort_sccz80_callee
   253                          	GLOBAL	qsort_sdcc
   253                          	GLOBAL	qsort_sdcc_callee
   253                          	GLOBAL	_div_
   253                          	GLOBAL	_div__callee
   253                          	GLOBAL	_divu_
   253                          	GLOBAL	_divu__callee
   253                          	GLOBAL	_ldiv_
   253                          	GLOBAL	_ldiv__callee
   253                          	GLOBAL	_ldivu_
   253                          	GLOBAL	_ldivu__callee
   253                          	GLOBAL	abs
   253                          	GLOBAL	abs_fastcall
   253                          	GLOBAL	labs
   253                          	GLOBAL	labs_fastcall
   253                          	GLOBAL	isqrt
   253                          	GLOBAL	isqrt_fastcall
   253                          	GLOBAL	inp
   253                          	GLOBAL	inp_fastcall
   253                          	GLOBAL	outp
   253                          	GLOBAL	outp_callee
   253                          	GLOBAL	swapendian
   253                          	GLOBAL	bpoke
   253                          	GLOBAL	wpoke
   253                          	GLOBAL	bpeek
   253                          	GLOBAL	wpeek
   253                          	GLOBAL	bpeek_fastcall
   253                          	GLOBAL	wpeek_fastcall
   253                          	GLOBAL	bpoke_callee
   253                          	GLOBAL	wpoke_callee
   253                          	GLOBAL	t_delay
   253                          	GLOBAL	sleep
   253                          	GLOBAL	sleep_fastcall
   253                          	GLOBAL	msleep
   253                          	GLOBAL	msleep_fastcall
   253                          	GLOBAL	extract_bits
   253                          	GLOBAL	extract_bits_callee
   253                          	GLOBAL	wcmatch
   253                          	GLOBAL	unbcd
   253                          	GLOBAL	bcmp
   253                          	GLOBAL	bcmp_callee
   253                          	GLOBAL	bcopy
   253                          	GLOBAL	bcopy_callee
   253                          	GLOBAL	bzero
   253                          	GLOBAL	bzero_callee
   253                          	GLOBAL	index
   253                          	GLOBAL	index_callee
   253                          	GLOBAL	rindex
   253                          	GLOBAL	rindex_callee
   253                          	GLOBAL	strset
   253                          	GLOBAL	strset_callee
   253                          	GLOBAL	strnset
   253                          	GLOBAL	strnset_callee
   253                          	GLOBAL	rawmemchr
   253                          	GLOBAL	rawmemchr_callee
   253                          	GLOBAL	_memlwr_
   253                          	GLOBAL	_memlwr__callee
   253                          	GLOBAL	_memstrcpy_
   253                          	GLOBAL	_memstrcpy__callee
   253                          	GLOBAL	_memupr_
   253                          	GLOBAL	_memupr__callee
   253                          	GLOBAL	_strrstrip_
   253                          	GLOBAL	ffs
   253                          	GLOBAL	ffsl
   253                          	GLOBAL	memccpy
   253                          	GLOBAL	memccpy_callee
   253                          	GLOBAL	memchr
   253                          	GLOBAL	memchr_callee
   253                          	GLOBAL	memcmp
   253                          	GLOBAL	memcmp_callee
   253                          	GLOBAL	memcpy
   253                          	GLOBAL	memcpy_callee
   253                          	GLOBAL	memmem
   253                          	GLOBAL	memmem_callee
   253                          	GLOBAL	memmove
   253                          	GLOBAL	memmove_callee
   253                          	GLOBAL	memrchr
   253                          	GLOBAL	memrchr_callee
   253                          	GLOBAL	memset
   253                          	GLOBAL	memset_callee
   253                          	GLOBAL	memset_wr
   253                          	GLOBAL	memset_wr_callee
   253                          	GLOBAL	memswap
   253                          	GLOBAL	memswap_callee
   253                          	GLOBAL	stpcpy
   253                          	GLOBAL	stpcpy_callee
   253                          	GLOBAL	stpncpy
   253                          	GLOBAL	stpncpy_callee
   253                          	GLOBAL	strcasecmp
   253                          	GLOBAL	strcasecmp_callee
   253                          	GLOBAL	strcat
   253                          	GLOBAL	strcat_callee
   253                          	GLOBAL	strchr
   253                          	GLOBAL	strchr_callee
   253                          	GLOBAL	strchrnul
   253                          	GLOBAL	strchrnul_callee
   253                          	GLOBAL	strcmp
   253                          	GLOBAL	strcmp_callee
   253                          	GLOBAL	strcoll
   253                          	GLOBAL	strcoll_callee
   253                          	GLOBAL	strcpy
   253                          	GLOBAL	strcpy_callee
   253                          	GLOBAL	strcspn
   253                          	GLOBAL	strcspn_callee
   253                          	GLOBAL	strdup
   253                          	GLOBAL	strdup_fastcall
   253                          	GLOBAL	strerror
   253                          	GLOBAL	strerror_fastcall
   253                          	GLOBAL	stricmp
   253                          	GLOBAL	stricmp_callee
   253                          	GLOBAL	strlcat
   253                          	GLOBAL	strlcat_callee
   253                          	GLOBAL	strlcpy
   253                          	GLOBAL	strlcpy_callee
   253                          	GLOBAL	strlen
   253                          	GLOBAL	strlen_fastcall
   253                          	GLOBAL	strlwr
   253                          	GLOBAL	strlwr_fastcall
   253                          	GLOBAL	strncasecmp
   253                          	GLOBAL	strncasecmp_callee
   253                          	GLOBAL	strncat
   253                          	GLOBAL	strncat_callee
   253                          	GLOBAL	strnchar
   253                          	GLOBAL	strnchr_callee
   253                          	GLOBAL	strncmp
   253                          	GLOBAL	strncmp_callee
   253                          	GLOBAL	strncpy
   253                          	GLOBAL	strncpy_callee
   253                          	GLOBAL	strndup
   253                          	GLOBAL	strndup_callee
   253                          	GLOBAL	strnicmp
   253                          	GLOBAL	strnicmp_callee
   253                          	GLOBAL	strnlen
   253                          	GLOBAL	strnlen_callee
   253                          	GLOBAL	strpkbrk
   253                          	GLOBAL	strpbrk_callee
   253                          	GLOBAL	strrchr
   253                          	GLOBAL	strrchr_callee
   253                          	GLOBAL	strrcspn
   253                          	GLOBAL	strrcspn_callee
   253                          	GLOBAL	strrev
   253                          	GLOBAL	strrev_fastcall
   253                          	GLOBAL	strrspn
   253                          	GLOBAL	strrspn_callee
   253                          	GLOBAL	strrstrip
   253                          	GLOBAL	strrstrip_fastcall
   253                          	GLOBAL	strsep
   253                          	GLOBAL	strsep_callee
   253                          	GLOBAL	strspn
   253                          	GLOBAL	strspn_callee
   253                          	GLOBAL	strstr
   253                          	GLOBAL	strstr_callee
   253                          	GLOBAL	strstrip
   253                          	GLOBAL	strstrip_fastcall
   253                          	GLOBAL	strtok
   253                          	GLOBAL	strtok_callee
   253                          	GLOBAL	strtok_r
   253                          	GLOBAL	strtok_r_callee
   253                          	GLOBAL	strupr
   253                          	GLOBAL	strupr_fastcall
   253                          	GLOBAL	strxfrm
   253                          	GLOBAL	strxfrm_callee
   253                          	GLOBAL	strrstr
   253                          	GLOBAL	strrstr_callee
   253                          	GLOBAL	memopi
   253                          	GLOBAL	memopi_callee
   253                          	GLOBAL	memopd
   253                          	GLOBAL	memopd_callee
   253                          	GLOBAL	__builtin_memset
   253                          	GLOBAL	__builtin_memcpy
   253                          	GLOBAL	__builtin_strcpy
   253                          	GLOBAL	__builtin_strchr
   253                          	GLOBAL	isalnum
   253                          	GLOBAL	_isalnum_fastcall
   253                          	GLOBAL	isalpha
   253                          	GLOBAL	_isalpha_fastcall
   253                          	GLOBAL	isascii
   253                          	GLOBAL	_isascii_fastcall
   253                          	GLOBAL	isbdigit
   253                          	GLOBAL	_isbdigit_fastcall
   253                          	GLOBAL	isblank
   253                          	GLOBAL	_isblank_fastcall
   253                          	GLOBAL	iscntrl
   253                          	GLOBAL	_iscntrl_fastcall
   253                          	GLOBAL	isdigit
   253                          	GLOBAL	_isdigit_fastcall
   253                          	GLOBAL	isgraph
   253                          	GLOBAL	_isgraph_fastcall
   253                          	GLOBAL	islower
   253                          	GLOBAL	_islower_fastcall
   253                          	GLOBAL	isodigit
   253                          	GLOBAL	_isodigit_fastcall
   253                          	GLOBAL	isprint
   253                          	GLOBAL	_isprint_fastcall
   253                          	GLOBAL	ispunct
   253                          	GLOBAL	_ispunct_fastcall
   253                          	GLOBAL	isspace
   253                          	GLOBAL	_isspace_fastcall
   253                          	GLOBAL	isupper
   253                          	GLOBAL	_isupper_fastcall
   253                          	GLOBAL	isxdigit
   253                          	GLOBAL	_isxdigit_fastcall
   253                          	GLOBAL	toascii
   253                          	GLOBAL	_toascii_fastcall
   253                          	GLOBAL	tolower
   253                          	GLOBAL	_tolower_fastcall
   253                          	GLOBAL	toupper
   253                          	GLOBAL	_toupper_fastcall
   253                          	GLOBAL	time
   253                          	GLOBAL	gmtime
   253                          	GLOBAL	localtime
   253                          	GLOBAL	mktime
   253                          	GLOBAL	asctime
   253                          	GLOBAL	ctime
   253                          	GLOBAL	clock
   253                          	GLOBAL	_FRAMES
   253                          	GLOBAL	dostm_from_tm
   253                          	GLOBAL	dostm_from_tm_callee
   253                          	GLOBAL	tm_from_dostm
   253                          	GLOBAL	tm_from_dostm_callee
   253                          	GLOBAL	bit_open
   253                          	GLOBAL	bit_open_di
   253                          	GLOBAL	bit_close
   253                          	GLOBAL	bit_close_ei
   253                          	GLOBAL	bit_click
   253                          	GLOBAL	bit_fx
   253                          	GLOBAL	bit_fx2
   253                          	GLOBAL	bit_fx3
   253                          	GLOBAL	bit_fx4
   253                          	GLOBAL	bit_fx5
   253                          	GLOBAL	bit_fx6
   253                          	GLOBAL	bit_fx7
   253                          	GLOBAL	bit_synth
   253                          	GLOBAL	bit_beep
   253                          	GLOBAL	bit_beep_callee
   253                          	GLOBAL	bit_noise
   253                          	GLOBAL	bit_noise_callee
   253                          	GLOBAL	patch_beep
   253                          	GLOBAL	patch_beep_callee
   253                          	GLOBAL	bit_frequency
   253                          	GLOBAL	bit_play
   253                          	GLOBAL	psg_play
   253                          	GLOBAL	synth_phase
   253                          	GLOBAL	_synth_phase_1
   253                          	GLOBAL	_synth_phase_2
   253                          	GLOBAL	_synth_phase_3
   253                          	GLOBAL	_synth_phase_4
   253                          	GLOBAL	synth_play
   253                          	GLOBAL	buzzer_play
   253                          	GLOBAL	playzb4
   253                          	GLOBAL	bit_save_zx
   253                          	GLOBAL	bit_save_block_zx
   253                          	GLOBAL	bit_save_block_zx_callee
   253                          	GLOBAL	bit_load_block_zx
   253                          	GLOBAL	bit_load_block_zx_callee
   253                          	GLOBAL	bit_save_msx
   253                          	GLOBAL	bit_save_msx_callee
   253                          	GLOBAL	bit_load_msx
   253                          	GLOBAL	bit_load_vg5000
   253                          	GLOBAL	bit_tapion
   253                          	GLOBAL	bit_tapiof
   253                          	GLOBAL	bit_tapin
   253                          	GLOBAL	bit_tapin_bit
   253                          	GLOBAL	bit_beepfx
   253                          	GLOBAL	_bfx_0
   253                          	GLOBAL	_bfx_1
   253                          	GLOBAL	_bfx_2
   253                          	GLOBAL	_bfx_3
   253                          	GLOBAL	_bfx_4
   253                          	GLOBAL	_bfx_5
   253                          	GLOBAL	_bfx_6
   253                          	GLOBAL	_bfx_7
   253                          	GLOBAL	_bfx_8
   253                          	GLOBAL	_bfx_9
   253                          	GLOBAL	_bfx_10
   253                          	GLOBAL	_bfx_11
   253                          	GLOBAL	_bfx_12
   253                          	GLOBAL	_bfx_13
   253                          	GLOBAL	_bfx_14
   253                          	GLOBAL	_bfx_15
   253                          	GLOBAL	_bfx_16
   253                          	GLOBAL	_bfx_17
   253                          	GLOBAL	_bfx_18
   253                          	GLOBAL	_bfx_19
   253                          	GLOBAL	_bfx_20
   253                          	GLOBAL	_bfx_21
   253                          	GLOBAL	_bfx_22
   253                          	GLOBAL	_bfx_23
   253                          	GLOBAL	_bfx_24
   253                          	GLOBAL	_bfx_25
   253                          	GLOBAL	_bfx_26
   253                          	GLOBAL	_bfx_27
   253                          	GLOBAL	_bfx_28
   253                          	GLOBAL	_bfx_29
   253                          	GLOBAL	_bfx_30
   253                          	GLOBAL	_bfx_31
   253                          	GLOBAL	_bfx_32
   253                          	GLOBAL	_bfx_33
   253                          	GLOBAL	_bfx_34
   253                          	GLOBAL	_bfx_35
   253                          	GLOBAL	_bfx_36
   253                          	GLOBAL	_bfx_37
   253                          	GLOBAL	_bfx_38
   253                          	GLOBAL	_bfx_39
   253                          	GLOBAL	_bfx_40
   253                          	GLOBAL	_bfx_41
   253                          	GLOBAL	_bfx_42
   253                          	GLOBAL	_bfx_43
   253                          	GLOBAL	_bfx_44
   253                          	GLOBAL	_bfx_45
   253                          	GLOBAL	_bfx_46
   253                          	GLOBAL	_bfx_47
   253                          	GLOBAL	_bfx_48
   253                          	GLOBAL	_bfx_49
   253                          	GLOBAL	_bfx_50
   253                          	GLOBAL	_bfx_51
   253                          	GLOBAL	_bfx_52
   253                          	GLOBAL	_bfx_53
   253                          	GLOBAL	_bfx_54
   253                          	GLOBAL	_bfx_55
   253                          	GLOBAL	_bfx_56
   253                          	GLOBAL	_bfx_57
   253                          	GLOBAL	bksave
   253                          	GLOBAL	bkrestore
   253                          	GLOBAL	bkrestore_fastcall
   253                          	GLOBAL	getsprite
   253                          	GLOBAL	putsprite
   253                          	GLOBAL	putsprite_callee
   253                          	GLOBAL	joystick
   253                          	GLOBAL	joystick_sc
   253                          	GLOBAL	kjoystick
   253                          	GLOBAL	_joystick_type
   253                          	GLOBAL	__x_proportional
   253                          	GLOBAL	__y_proportional
   253                          	GLOBAL	__yh_proportional
   253                          	GLOBAL	__xchar_proportional
   253                          	GLOBAL	__X_int1
   253                          	GLOBAL	__X_int2
   253                          	GLOBAL	__X_int3
   253                          	GLOBAL	__x_must_expose
   253                          	GLOBAL	XOpenDisplay
   253                          	GLOBAL	XCloseDisplay
   253                          	GLOBAL	DefaultScreen
   253                          	GLOBAL	RootWindow
   253                          	GLOBAL	XCreateSimpleWindow
   253                          	GLOBAL	XDestroyWindow
   253                          	GLOBAL	XCreateGC
   253                          	GLOBAL	XFreeGC
   253                          	GLOBAL	XDisplayName
   253                          	GLOBAL	DisplayWidth
   253                          	GLOBAL	DisplayHeight
   253                          	GLOBAL	DefaultDepth
   253                          	GLOBAL	BlackPixel
   253                          	GLOBAL	WhitePixel
   253                          	GLOBAL	XMapWindow
   253                          	GLOBAL	XSetForeground
   253                          	GLOBAL	XSetLineAttributes
   253                          	GLOBAL	XSetDashes
   253                          	GLOBAL	XSetStandardProperties
   253                          	GLOBAL	XSelectInput
   253                          	GLOBAL	XNextEvent
   253                          	GLOBAL	XCheckWindowEvent
   253                          	GLOBAL	XCheckTypedEvent
   253                          	GLOBAL	XFlush
   253                          	GLOBAL	XTextWidth
   253                          	GLOBAL	XLoadQueryFont
   253                          	GLOBAL	XDrawString
   253                          	GLOBAL	XUnloadFont
   253                          	GLOBAL	XSetFont
   253                          	GLOBAL	XCreateBitmapFromData
   253                          	GLOBAL	XDrawRectangle
   253                          	GLOBAL	XDrawPoint
   253                          	GLOBAL	XDrawLine
   253                          	GLOBAL	XClearWindow
   253                          	GLOBAL	_xfindchar
   253                          	GLOBAL	_xfputc
   253                          	GLOBAL	textcolor
   253                          	GLOBAL	textcolour
   253                          	GLOBAL	textbackground
   253                          	GLOBAL	wherex
   253                          	GLOBAL	wherey
   253                          	GLOBAL	gotoxy
   253                          	GLOBAL	gotoxy_callee
   253                          	GLOBAL	screensize
   253                          	GLOBAL	screensize_callee
   253                          	GLOBAL	cprintf
   253                          	GLOBAL	cputs
   253                          	GLOBAL	cgets
   253                          	GLOBAL	kbhit
   253                          	GLOBAL	getch
   253                          	GLOBAL	cvpeek
   253                          	GLOBAL	cvpeekr
   253                          	GLOBAL	bordercolor
   253                          	GLOBAL	bordercolour
   253                          	GLOBAL	_is_full
   253                          	GLOBAL	_display_board
   253                          	GLOBAL	_make_move
   253                          	GLOBAL	_check_win
   253                          	GLOBAL	_strip_newline
   253                          	GLOBAL	_show_instructions
   253                          	GLOBAL	_play
   253                          	GLOBAL	_z80_delay_ms
   253                          	GLOBAL	_main
   253                          
   253                          
   253                          ; --- End of Scope Defns ---
   253                          
   253                          
   253                          ; --- End of Compilation ---
   253                          
